(dp0
Vname
p1
V_blake2
p2
sVis_builtin
p3
I01
sVdoc
p4
V_blake2b provides BLAKE2b for hashlib\u000a
p5
sVchilds
p6
(lp7
(dp8
g1
VBLAKE2B_MAX_DIGEST_SIZE
p9
sg3
I01
sVtype
p10
L5L
sa(dp11
g1
VBLAKE2B_MAX_KEY_SIZE
p12
sg3
I01
sg10
L5L
sa(dp13
g1
VBLAKE2B_PERSON_SIZE
p14
sg3
I01
sg10
L5L
sa(dp15
g1
VBLAKE2B_SALT_SIZE
p16
sg3
I01
sg10
L5L
sa(dp17
g1
VBLAKE2S_MAX_DIGEST_SIZE
p18
sg3
I01
sg10
L5L
sa(dp19
g1
VBLAKE2S_MAX_KEY_SIZE
p20
sg3
I01
sg10
L5L
sa(dp21
g1
VBLAKE2S_PERSON_SIZE
p22
sg3
I01
sg10
L5L
sa(dp23
g1
VBLAKE2S_SALT_SIZE
p24
sg3
I01
sg10
L5L
sa(dp25
g1
V__doc__
p26
sg3
I01
sg10
L5L
sa(dp27
g1
V__loader__
p28
sg3
I01
sg10
L3L
sg6
(lp29
(dp30
g1
V__delattr__
p31
sg3
I01
sg10
L5L
sa(dp32
g1
V__dict__
p33
sg3
I01
sg10
L5L
sa(dp34
g1
V__dir__
p35
sg3
I01
sg10
L2L
sg4
V__dir__() -> list\u000adefault dir() implementation
p36
sa(dp37
g1
g26
sg3
I01
sg10
L5L
sa(dp38
g1
V__eq__
p39
sg3
I01
sg10
L5L
sa(dp40
g1
V__format__
p41
sg3
I01
sg10
L2L
sg4
Vdefault object formatter
p42
sa(dp43
g1
V__ge__
p44
sg3
I01
sg10
L5L
sa(dp45
g1
V__getattribute__
p46
sg3
I01
sg10
L5L
sa(dp47
g1
V__gt__
p48
sg3
I01
sg10
L5L
sa(dp49
g1
V__hash__
p50
sg3
I01
sg10
L5L
sa(dp51
g1
V__init__
p52
sg3
I01
sg10
L5L
sa(dp53
g1
V__init_subclass__
p54
sg3
I01
sg10
L2L
sg4
VThis method is called when a class is subclassed.\u000a\u000aThe default implementation does nothing. It may be\u000aoverridden to extend subclasses.\u000a
p55
sa(dp56
g1
V__le__
p57
sg3
I01
sg10
L5L
sa(dp58
g1
V__lt__
p59
sg3
I01
sg10
L5L
sa(dp60
g1
V__module__
p61
sg3
I01
sg10
L5L
sa(dp62
g1
V__ne__
p63
sg3
I01
sg10
L5L
sa(dp64
g1
V__new__
p65
sg3
I01
sg10
L2L
sg4
VCreate and return a new object.  See help(type) for accurate signature.
p66
sa(dp67
g1
V__reduce__
p68
sg3
I01
sg10
L2L
sg4
Vhelper for pickle
p69
sa(dp70
g1
V__reduce_ex__
p71
sg3
I01
sg10
L2L
sg4
Vhelper for pickle
p72
sa(dp73
g1
V__repr__
p74
sg3
I01
sg10
L5L
sa(dp75
g1
V__setattr__
p76
sg3
I01
sg10
L5L
sa(dp77
g1
V__sizeof__
p78
sg3
I01
sg10
L2L
sg4
V__sizeof__() -> int\u000asize of object in memory, in bytes
p79
sa(dp80
g1
V__str__
p81
sg3
I01
sg10
L5L
sa(dp82
g1
V__subclasshook__
p83
sg3
I01
sg10
L2L
sg4
VAbstract classes can override this to customize issubclass().\u000a\u000aThis is invoked early on by abc.ABCMeta.__subclasscheck__().\u000aIt should return True, False or NotImplemented.  If it returns\u000aNotImplemented, the normal algorithm is used.  Otherwise, it\u000aoverrides the normal algorithm (and the outcome is cached).\u000a
p84
sa(dp85
g1
V__weakref__
p86
sg3
I01
sg10
L5L
sa(dp87
g1
Vcreate_module
p88
sg3
I01
sg10
L5L
sa(dp89
g1
Vexec_module
p90
sg3
I01
sg10
L5L
sa(dp91
g1
Vfind_module
p92
sg3
I01
sg10
L5L
sa(dp93
g1
Vfind_spec
p94
sg3
I01
sg10
L5L
sa(dp95
g1
Vget_code
p96
sg3
I01
sg10
L5L
sa(dp97
g1
Vget_source
p98
sg3
I01
sg10
L5L
sa(dp99
g1
Vis_package
p100
sg3
I01
sg10
L5L
sa(dp101
g1
Vload_module
p102
sg3
I01
sg10
L5L
sa(dp103
g1
Vmodule_repr
p104
sg3
I01
sg10
L5L
sasg4
VMeta path import for built-in modules.\u000a\u000a    All methods are either class or static methods to avoid the need to\u000a    instantiate the class.\u000a\u000a    
p105
sa(dp106
g1
V__name__
p107
sg3
I01
sg10
L5L
sa(dp108
g1
V__package__
p109
sg3
I01
sg10
L5L
sa(dp110
g1
V__spec__
p111
sg3
I01
sg10
L5L
sa(dp112
g1
Vblake2b
p113
sg3
I01
sg10
L3L
sg6
(lp114
(dp115
g1
VMAX_DIGEST_SIZE
p116
sg3
I01
sg10
L5L
sa(dp117
g1
VMAX_KEY_SIZE
p118
sg3
I01
sg10
L5L
sa(dp119
g1
VPERSON_SIZE
p120
sg3
I01
sg10
L5L
sa(dp121
g1
VSALT_SIZE
p122
sg3
I01
sg10
L5L
sa(dp123
g1
g31
sg3
I01
sg10
L5L
sa(dp124
g1
g35
sg3
I01
sg10
L2L
sg4
V__dir__() -> list\u000adefault dir() implementation
p125
sa(dp126
g1
g26
sg3
I01
sg10
L5L
sa(dp127
g1
g39
sg3
I01
sg10
L5L
sa(dp128
g1
g41
sg3
I01
sg10
L2L
sg4
Vdefault object formatter
p129
sa(dp130
g1
g44
sg3
I01
sg10
L5L
sa(dp131
g1
g46
sg3
I01
sg10
L5L
sa(dp132
g1
g48
sg3
I01
sg10
L5L
sa(dp133
g1
g50
sg3
I01
sg10
L5L
sa(dp134
g1
g52
sg3
I01
sg10
L5L
sa(dp135
g1
g54
sg3
I01
sg10
L2L
sg4
VThis method is called when a class is subclassed.\u000a\u000aThe default implementation does nothing. It may be\u000aoverridden to extend subclasses.\u000a
p136
sa(dp137
g1
g57
sg3
I01
sg10
L5L
sa(dp138
g1
g59
sg3
I01
sg10
L5L
sa(dp139
g1
g63
sg3
I01
sg10
L5L
sa(dp140
g1
g65
sg3
I01
sg10
L2L
sg4
VCreate and return a new object.  See help(type) for accurate signature.
p141
sa(dp142
g1
g68
sg3
I01
sg10
L2L
sg4
Vhelper for pickle
p143
sa(dp144
g1
g71
sg3
I01
sg10
L2L
sg4
Vhelper for pickle
p145
sa(dp146
g1
g74
sg3
I01
sg10
L5L
sa(dp147
g1
g76
sg3
I01
sg10
L5L
sa(dp148
g1
g78
sg3
I01
sg10
L2L
sg4
V__sizeof__() -> int\u000asize of object in memory, in bytes
p149
sa(dp150
g1
g81
sg3
I01
sg10
L5L
sa(dp151
g1
g83
sg3
I01
sg10
L2L
sg4
VAbstract classes can override this to customize issubclass().\u000a\u000aThis is invoked early on by abc.ABCMeta.__subclasscheck__().\u000aIt should return True, False or NotImplemented.  If it returns\u000aNotImplemented, the normal algorithm is used.  Otherwise, it\u000aoverrides the normal algorithm (and the outcome is cached).\u000a
p152
sa(dp153
g1
Vblock_size
p154
sg3
I01
sg10
L5L
sa(dp155
g1
Vcopy
p156
sg3
I01
sg10
L2L
sg4
VReturn a copy of the hash object.
p157
sa(dp158
g1
Vdigest
p159
sg3
I01
sg10
L2L
sg4
VReturn the digest value as a string of binary data.
p160
sa(dp161
g1
Vdigest_size
p162
sg3
I01
sg10
L5L
sa(dp163
g1
Vhexdigest
p164
sg3
I01
sg10
L2L
sg4
VReturn the digest value as a string of hexadecimal digits.
p165
sa(dp166
g1
g1
sg3
I01
sg10
L5L
sa(dp167
g1
Vupdate
p168
sg3
I01
sg10
L2L
sg4
VUpdate this hash object's state with the provided string.
p169
sasg4
VReturn a new BLAKE2b hash object.
p170
sa(dp171
g1
Vblake2s
p172
sg3
I01
sg10
L3L
sg6
(lp173
(dp174
g1
g116
sg3
I01
sg10
L5L
sa(dp175
g1
g118
sg3
I01
sg10
L5L
sa(dp176
g1
g120
sg3
I01
sg10
L5L
sa(dp177
g1
g122
sg3
I01
sg10
L5L
sa(dp178
g1
g31
sg3
I01
sg10
L5L
sa(dp179
g1
g35
sg3
I01
sg10
L2L
sg4
V__dir__() -> list\u000adefault dir() implementation
p180
sa(dp181
g1
g26
sg3
I01
sg10
L5L
sa(dp182
g1
g39
sg3
I01
sg10
L5L
sa(dp183
g1
g41
sg3
I01
sg10
L2L
sg4
Vdefault object formatter
p184
sa(dp185
g1
g44
sg3
I01
sg10
L5L
sa(dp186
g1
g46
sg3
I01
sg10
L5L
sa(dp187
g1
g48
sg3
I01
sg10
L5L
sa(dp188
g1
g50
sg3
I01
sg10
L5L
sa(dp189
g1
g52
sg3
I01
sg10
L5L
sa(dp190
g1
g54
sg3
I01
sg10
L2L
sg4
VThis method is called when a class is subclassed.\u000a\u000aThe default implementation does nothing. It may be\u000aoverridden to extend subclasses.\u000a
p191
sa(dp192
g1
g57
sg3
I01
sg10
L5L
sa(dp193
g1
g59
sg3
I01
sg10
L5L
sa(dp194
g1
g63
sg3
I01
sg10
L5L
sa(dp195
g1
g65
sg3
I01
sg10
L2L
sg4
VCreate and return a new object.  See help(type) for accurate signature.
p196
sa(dp197
g1
g68
sg3
I01
sg10
L2L
sg4
Vhelper for pickle
p198
sa(dp199
g1
g71
sg3
I01
sg10
L2L
sg4
Vhelper for pickle
p200
sa(dp201
g1
g74
sg3
I01
sg10
L5L
sa(dp202
g1
g76
sg3
I01
sg10
L5L
sa(dp203
g1
g78
sg3
I01
sg10
L2L
sg4
V__sizeof__() -> int\u000asize of object in memory, in bytes
p204
sa(dp205
g1
g81
sg3
I01
sg10
L5L
sa(dp206
g1
g83
sg3
I01
sg10
L2L
sg4
VAbstract classes can override this to customize issubclass().\u000a\u000aThis is invoked early on by abc.ABCMeta.__subclasscheck__().\u000aIt should return True, False or NotImplemented.  If it returns\u000aNotImplemented, the normal algorithm is used.  Otherwise, it\u000aoverrides the normal algorithm (and the outcome is cached).\u000a
p207
sa(dp208
g1
g154
sg3
I01
sg10
L5L
sa(dp209
g1
g156
sg3
I01
sg10
L2L
sg4
VReturn a copy of the hash object.
p210
sa(dp211
g1
g159
sg3
I01
sg10
L2L
sg4
VReturn the digest value as a string of binary data.
p212
sa(dp213
g1
g162
sg3
I01
sg10
L5L
sa(dp214
g1
g164
sg3
I01
sg10
L2L
sg4
VReturn the digest value as a string of hexadecimal digits.
p215
sa(dp216
g1
g1
sg3
I01
sg10
L5L
sa(dp217
g1
g168
sg3
I01
sg10
L2L
sg4
VUpdate this hash object's state with the provided string.
p218
sasg4
VReturn a new BLAKE2s hash object.
p219
sasg10
L1L
s.