(dp0
Vname
p1
V_codecs_tw
p2
sVis_builtin
p3
I01
sVdoc
p4
NsVchilds
p5
(lp6
(dp7
g1
V__doc__
p8
sg3
I01
sVtype
p9
L5L
sa(dp10
g1
V__loader__
p11
sg3
I01
sg9
L3L
sg5
(lp12
(dp13
g1
V__delattr__
p14
sg3
I01
sg9
L5L
sa(dp15
g1
V__dict__
p16
sg3
I01
sg9
L5L
sa(dp17
g1
V__dir__
p18
sg3
I01
sg9
L2L
sg4
V__dir__() -> list\u000adefault dir() implementation
p19
sa(dp20
g1
g8
sg3
I01
sg9
L5L
sa(dp21
g1
V__eq__
p22
sg3
I01
sg9
L5L
sa(dp23
g1
V__format__
p24
sg3
I01
sg9
L2L
sg4
Vdefault object formatter
p25
sa(dp26
g1
V__ge__
p27
sg3
I01
sg9
L5L
sa(dp28
g1
V__getattribute__
p29
sg3
I01
sg9
L5L
sa(dp30
g1
V__gt__
p31
sg3
I01
sg9
L5L
sa(dp32
g1
V__hash__
p33
sg3
I01
sg9
L5L
sa(dp34
g1
V__init__
p35
sg3
I01
sg9
L5L
sa(dp36
g1
V__init_subclass__
p37
sg3
I01
sg9
L2L
sg4
VThis method is called when a class is subclassed.\u000a\u000aThe default implementation does nothing. It may be\u000aoverridden to extend subclasses.\u000a
p38
sa(dp39
g1
V__le__
p40
sg3
I01
sg9
L5L
sa(dp41
g1
V__lt__
p42
sg3
I01
sg9
L5L
sa(dp43
g1
V__module__
p44
sg3
I01
sg9
L5L
sa(dp45
g1
V__ne__
p46
sg3
I01
sg9
L5L
sa(dp47
g1
V__new__
p48
sg3
I01
sg9
L2L
sg4
VCreate and return a new object.  See help(type) for accurate signature.
p49
sa(dp50
g1
V__reduce__
p51
sg3
I01
sg9
L2L
sg4
Vhelper for pickle
p52
sa(dp53
g1
V__reduce_ex__
p54
sg3
I01
sg9
L2L
sg4
Vhelper for pickle
p55
sa(dp56
g1
V__repr__
p57
sg3
I01
sg9
L5L
sa(dp58
g1
V__setattr__
p59
sg3
I01
sg9
L5L
sa(dp60
g1
V__sizeof__
p61
sg3
I01
sg9
L2L
sg4
V__sizeof__() -> int\u000asize of object in memory, in bytes
p62
sa(dp63
g1
V__str__
p64
sg3
I01
sg9
L5L
sa(dp65
g1
V__subclasshook__
p66
sg3
I01
sg9
L2L
sg4
VAbstract classes can override this to customize issubclass().\u000a\u000aThis is invoked early on by abc.ABCMeta.__subclasscheck__().\u000aIt should return True, False or NotImplemented.  If it returns\u000aNotImplemented, the normal algorithm is used.  Otherwise, it\u000aoverrides the normal algorithm (and the outcome is cached).\u000a
p67
sa(dp68
g1
V__weakref__
p69
sg3
I01
sg9
L5L
sa(dp70
g1
Vcreate_module
p71
sg3
I01
sg9
L5L
sa(dp72
g1
Vexec_module
p73
sg3
I01
sg9
L5L
sa(dp74
g1
Vfind_module
p75
sg3
I01
sg9
L5L
sa(dp76
g1
Vfind_spec
p77
sg3
I01
sg9
L5L
sa(dp78
g1
Vget_code
p79
sg3
I01
sg9
L5L
sa(dp80
g1
Vget_source
p81
sg3
I01
sg9
L5L
sa(dp82
g1
Vis_package
p83
sg3
I01
sg9
L5L
sa(dp84
g1
Vload_module
p85
sg3
I01
sg9
L5L
sa(dp86
g1
Vmodule_repr
p87
sg3
I01
sg9
L5L
sasg4
VMeta path import for built-in modules.\u000a\u000a    All methods are either class or static methods to avoid the need to\u000a    instantiate the class.\u000a\u000a    
p88
sa(dp89
g1
V__map_big5
p90
sg3
I01
sg9
L5L
sa(dp91
g1
V__map_cp950ext
p92
sg3
I01
sg9
L5L
sa(dp93
g1
V__name__
p94
sg3
I01
sg9
L5L
sa(dp95
g1
V__package__
p96
sg3
I01
sg9
L5L
sa(dp97
g1
V__spec__
p98
sg3
I01
sg9
L5L
sa(dp99
g1
Vgetcodec
p100
sg3
I01
sg9
L2L
sg4
Nsasg9
L1L
s.