(dp0
Vname
p1
V_codecs
p2
sVis_builtin
p3
I01
sVdoc
p4
NsVchilds
p5
(lp6
(dp7
g1
V__doc__
p8
sg3
I01
sVtype
p9
L5L
sa(dp10
g1
V__loader__
p11
sg3
I01
sg9
L3L
sg5
(lp12
(dp13
g1
V__delattr__
p14
sg3
I01
sg9
L5L
sa(dp15
g1
V__dict__
p16
sg3
I01
sg9
L5L
sa(dp17
g1
V__dir__
p18
sg3
I01
sg9
L2L
sg4
V__dir__() -> list\u000adefault dir() implementation
p19
sa(dp20
g1
g8
sg3
I01
sg9
L5L
sa(dp21
g1
V__eq__
p22
sg3
I01
sg9
L5L
sa(dp23
g1
V__format__
p24
sg3
I01
sg9
L2L
sg4
Vdefault object formatter
p25
sa(dp26
g1
V__ge__
p27
sg3
I01
sg9
L5L
sa(dp28
g1
V__getattribute__
p29
sg3
I01
sg9
L5L
sa(dp30
g1
V__gt__
p31
sg3
I01
sg9
L5L
sa(dp32
g1
V__hash__
p33
sg3
I01
sg9
L5L
sa(dp34
g1
V__init__
p35
sg3
I01
sg9
L5L
sa(dp36
g1
V__init_subclass__
p37
sg3
I01
sg9
L2L
sg4
VThis method is called when a class is subclassed.\u000a\u000aThe default implementation does nothing. It may be\u000aoverridden to extend subclasses.\u000a
p38
sa(dp39
g1
V__le__
p40
sg3
I01
sg9
L5L
sa(dp41
g1
V__lt__
p42
sg3
I01
sg9
L5L
sa(dp43
g1
V__module__
p44
sg3
I01
sg9
L5L
sa(dp45
g1
V__ne__
p46
sg3
I01
sg9
L5L
sa(dp47
g1
V__new__
p48
sg3
I01
sg9
L2L
sg4
VCreate and return a new object.  See help(type) for accurate signature.
p49
sa(dp50
g1
V__reduce__
p51
sg3
I01
sg9
L2L
sg4
Vhelper for pickle
p52
sa(dp53
g1
V__reduce_ex__
p54
sg3
I01
sg9
L2L
sg4
Vhelper for pickle
p55
sa(dp56
g1
V__repr__
p57
sg3
I01
sg9
L5L
sa(dp58
g1
V__setattr__
p59
sg3
I01
sg9
L5L
sa(dp60
g1
V__sizeof__
p61
sg3
I01
sg9
L2L
sg4
V__sizeof__() -> int\u000asize of object in memory, in bytes
p62
sa(dp63
g1
V__str__
p64
sg3
I01
sg9
L5L
sa(dp65
g1
V__subclasshook__
p66
sg3
I01
sg9
L2L
sg4
VAbstract classes can override this to customize issubclass().\u000a\u000aThis is invoked early on by abc.ABCMeta.__subclasscheck__().\u000aIt should return True, False or NotImplemented.  If it returns\u000aNotImplemented, the normal algorithm is used.  Otherwise, it\u000aoverrides the normal algorithm (and the outcome is cached).\u000a
p67
sa(dp68
g1
V__weakref__
p69
sg3
I01
sg9
L5L
sa(dp70
g1
Vcreate_module
p71
sg3
I01
sg9
L5L
sa(dp72
g1
Vexec_module
p73
sg3
I01
sg9
L5L
sa(dp74
g1
Vfind_module
p75
sg3
I01
sg9
L5L
sa(dp76
g1
Vfind_spec
p77
sg3
I01
sg9
L5L
sa(dp78
g1
Vget_code
p79
sg3
I01
sg9
L5L
sa(dp80
g1
Vget_source
p81
sg3
I01
sg9
L5L
sa(dp82
g1
Vis_package
p83
sg3
I01
sg9
L5L
sa(dp84
g1
Vload_module
p85
sg3
I01
sg9
L5L
sa(dp86
g1
Vmodule_repr
p87
sg3
I01
sg9
L5L
sasg4
VMeta path import for built-in modules.\u000a\u000a    All methods are either class or static methods to avoid the need to\u000a    instantiate the class.\u000a\u000a    
p88
sa(dp89
g1
V__name__
p90
sg3
I01
sg9
L5L
sa(dp91
g1
V__package__
p92
sg3
I01
sg9
L5L
sa(dp93
g1
V__spec__
p94
sg3
I01
sg9
L5L
sa(dp95
g1
V_forget_codec
p96
sg3
I01
sg9
L2L
sg4
VPurge the named codec from the internal codec lookup cache
p97
sa(dp98
g1
Vascii_decode
p99
sg3
I01
sg9
L2L
sg4
Nsa(dp100
g1
Vascii_encode
p101
sg3
I01
sg9
L2L
sg4
Nsa(dp102
g1
Vcharmap_build
p103
sg3
I01
sg9
L2L
sg4
Nsa(dp104
g1
Vcharmap_decode
p105
sg3
I01
sg9
L2L
sg4
Nsa(dp106
g1
Vcharmap_encode
p107
sg3
I01
sg9
L2L
sg4
Nsa(dp108
g1
Vcode_page_decode
p109
sg3
I01
sg9
L2L
sg4
Nsa(dp110
g1
Vcode_page_encode
p111
sg3
I01
sg9
L2L
sg4
Nsa(dp112
g1
Vdecode
p113
sg3
I01
sg9
L2L
sg4
VDecodes obj using the codec registered for encoding.\u000a\u000aDefault encoding is 'utf-8'.  errors may be given to set a\u000adifferent error handling scheme.  Default is 'strict' meaning that encoding\u000aerrors raise a ValueError.  Other possible values are 'ignore', 'replace'\u000aand 'backslashreplace' as well as any other name registered with\u000acodecs.register_error that can handle ValueErrors.
p114
sa(dp115
g1
Vencode
p116
sg3
I01
sg9
L2L
sg4
VEncodes obj using the codec registered for encoding.\u000a\u000aThe default encoding is 'utf-8'.  errors may be given to set a\u000adifferent error handling scheme.  Default is 'strict' meaning that encoding\u000aerrors raise a ValueError.  Other possible values are 'ignore', 'replace'\u000aand 'backslashreplace' as well as any other name registered with\u000acodecs.register_error that can handle ValueErrors.
p117
sa(dp118
g1
Vescape_decode
p119
sg3
I01
sg9
L2L
sg4
Nsa(dp120
g1
Vescape_encode
p121
sg3
I01
sg9
L2L
sg4
Nsa(dp122
g1
Vlatin_1_decode
p123
sg3
I01
sg9
L2L
sg4
Nsa(dp124
g1
Vlatin_1_encode
p125
sg3
I01
sg9
L2L
sg4
Nsa(dp126
g1
Vlookup
p127
sg3
I01
sg9
L2L
sg4
VLooks up a codec tuple in the Python codec registry and returns a CodecInfo object.
p128
sa(dp129
g1
Vlookup_error
p130
sg3
I01
sg9
L2L
sg4
Vlookup_error(errors) -> handler\u000a\u000aReturn the error handler for the specified error handling name or raise a\u000aLookupError, if no handler exists under this name.
p131
sa(dp132
g1
Vmbcs_decode
p133
sg3
I01
sg9
L2L
sg4
Nsa(dp134
g1
Vmbcs_encode
p135
sg3
I01
sg9
L2L
sg4
Nsa(dp136
g1
Voem_decode
p137
sg3
I01
sg9
L2L
sg4
Nsa(dp138
g1
Voem_encode
p139
sg3
I01
sg9
L2L
sg4
Nsa(dp140
g1
Vraw_unicode_escape_decode
p141
sg3
I01
sg9
L2L
sg4
Nsa(dp142
g1
Vraw_unicode_escape_encode
p143
sg3
I01
sg9
L2L
sg4
Nsa(dp144
g1
Vreadbuffer_encode
p145
sg3
I01
sg9
L2L
sg4
Nsa(dp146
g1
Vregister
p147
sg3
I01
sg9
L2L
sg4
VRegister a codec search function.\u000a\u000aSearch functions are expected to take one argument, the encoding name in\u000aall lower case letters, and either return None, or a tuple of functions\u000a(encoder, decoder, stream_reader, stream_writer) (or a CodecInfo object).
p148
sa(dp149
g1
Vregister_error
p150
sg3
I01
sg9
L2L
sg4
VRegister the specified error handler under the name errors.\u000a\u000ahandler must be a callable object, that will be called with an exception\u000ainstance containing information about the location of the encoding/decoding\u000aerror and must return a (replacement, new position) tuple.
p151
sa(dp152
g1
Vunicode_escape_decode
p153
sg3
I01
sg9
L2L
sg4
Nsa(dp154
g1
Vunicode_escape_encode
p155
sg3
I01
sg9
L2L
sg4
Nsa(dp156
g1
Vunicode_internal_decode
p157
sg3
I01
sg9
L2L
sg4
Nsa(dp158
g1
Vunicode_internal_encode
p159
sg3
I01
sg9
L2L
sg4
Nsa(dp160
g1
Vutf_16_be_decode
p161
sg3
I01
sg9
L2L
sg4
Nsa(dp162
g1
Vutf_16_be_encode
p163
sg3
I01
sg9
L2L
sg4
Nsa(dp164
g1
Vutf_16_decode
p165
sg3
I01
sg9
L2L
sg4
Nsa(dp166
g1
Vutf_16_encode
p167
sg3
I01
sg9
L2L
sg4
Nsa(dp168
g1
Vutf_16_ex_decode
p169
sg3
I01
sg9
L2L
sg4
Nsa(dp170
g1
Vutf_16_le_decode
p171
sg3
I01
sg9
L2L
sg4
Nsa(dp172
g1
Vutf_16_le_encode
p173
sg3
I01
sg9
L2L
sg4
Nsa(dp174
g1
Vutf_32_be_decode
p175
sg3
I01
sg9
L2L
sg4
Nsa(dp176
g1
Vutf_32_be_encode
p177
sg3
I01
sg9
L2L
sg4
Nsa(dp178
g1
Vutf_32_decode
p179
sg3
I01
sg9
L2L
sg4
Nsa(dp180
g1
Vutf_32_encode
p181
sg3
I01
sg9
L2L
sg4
Nsa(dp182
g1
Vutf_32_ex_decode
p183
sg3
I01
sg9
L2L
sg4
Nsa(dp184
g1
Vutf_32_le_decode
p185
sg3
I01
sg9
L2L
sg4
Nsa(dp186
g1
Vutf_32_le_encode
p187
sg3
I01
sg9
L2L
sg4
Nsa(dp188
g1
Vutf_7_decode
p189
sg3
I01
sg9
L2L
sg4
Nsa(dp190
g1
Vutf_7_encode
p191
sg3
I01
sg9
L2L
sg4
Nsa(dp192
g1
Vutf_8_decode
p193
sg3
I01
sg9
L2L
sg4
Nsa(dp194
g1
Vutf_8_encode
p195
sg3
I01
sg9
L2L
sg4
Nsasg9
L1L
s.