(dp0
Vname
p1
V_collections
p2
sVis_builtin
p3
I01
sVdoc
p4
VHigh performance data structures.\u000a- deque:        ordered collection accessible from endpoints only\u000a- defaultdict:  dict subclass with a default value factory\u000a
p5
sVchilds
p6
(lp7
(dp8
g1
VOrderedDict
p9
sg3
I01
sVtype
p10
L3L
sg6
(lp11
(dp12
g1
V__contains__
p13
sg3
I01
sg10
L2L
sg4
VTrue if D has a key k, else False.
p14
sa(dp15
g1
V__delattr__
p16
sg3
I01
sg10
L5L
sa(dp17
g1
V__delitem__
p18
sg3
I01
sg10
L5L
sa(dp19
g1
V__dict__
p20
sg3
I01
sg10
L5L
sa(dp21
g1
V__dir__
p22
sg3
I01
sg10
L2L
sg4
V__dir__() -> list\u000adefault dir() implementation
p23
sa(dp24
g1
V__doc__
p25
sg3
I01
sg10
L5L
sa(dp26
g1
V__eq__
p27
sg3
I01
sg10
L5L
sa(dp28
g1
V__format__
p29
sg3
I01
sg10
L2L
sg4
Vdefault object formatter
p30
sa(dp31
g1
V__ge__
p32
sg3
I01
sg10
L5L
sa(dp33
g1
V__getattribute__
p34
sg3
I01
sg10
L5L
sa(dp35
g1
V__getitem__
p36
sg3
I01
sg10
L2L
sg4
Vx.__getitem__(y) <==> x[y]
p37
sa(dp38
g1
V__gt__
p39
sg3
I01
sg10
L5L
sa(dp40
g1
V__hash__
p41
sg3
I01
sg10
L5L
sa(dp42
g1
V__init__
p43
sg3
I01
sg10
L5L
sa(dp44
g1
V__init_subclass__
p45
sg3
I01
sg10
L2L
sg4
VThis method is called when a class is subclassed.\u000a\u000aThe default implementation does nothing. It may be\u000aoverridden to extend subclasses.\u000a
p46
sa(dp47
g1
V__iter__
p48
sg3
I01
sg10
L5L
sa(dp49
g1
V__le__
p50
sg3
I01
sg10
L5L
sa(dp51
g1
V__len__
p52
sg3
I01
sg10
L5L
sa(dp53
g1
V__lt__
p54
sg3
I01
sg10
L5L
sa(dp55
g1
V__ne__
p56
sg3
I01
sg10
L5L
sa(dp57
g1
V__new__
p58
sg3
I01
sg10
L2L
sg4
VCreate and return a new object.  See help(type) for accurate signature.
p59
sa(dp60
g1
V__reduce__
p61
sg3
I01
sg10
L2L
sg4
VReturn state information for pickling
p62
sa(dp63
g1
V__reduce_ex__
p64
sg3
I01
sg10
L2L
sg4
Vhelper for pickle
p65
sa(dp66
g1
V__repr__
p67
sg3
I01
sg10
L5L
sa(dp68
g1
V__reversed__
p69
sg3
I01
sg10
L2L
sg4
Vod.__reversed__() <==> reversed(od)
p70
sa(dp71
g1
V__setattr__
p72
sg3
I01
sg10
L5L
sa(dp73
g1
V__setitem__
p74
sg3
I01
sg10
L5L
sa(dp75
g1
V__sizeof__
p76
sg3
I01
sg10
L2L
sg4
Nsa(dp77
g1
V__str__
p78
sg3
I01
sg10
L5L
sa(dp79
g1
V__subclasshook__
p80
sg3
I01
sg10
L2L
sg4
VAbstract classes can override this to customize issubclass().\u000a\u000aThis is invoked early on by abc.ABCMeta.__subclasscheck__().\u000aIt should return True, False or NotImplemented.  If it returns\u000aNotImplemented, the normal algorithm is used.  Otherwise, it\u000aoverrides the normal algorithm (and the outcome is cached).\u000a
p81
sa(dp82
g1
Vclear
p83
sg3
I01
sg10
L2L
sg4
Vod.clear() -> None.  Remove all items from od.
p84
sa(dp85
g1
Vcopy
p86
sg3
I01
sg10
L2L
sg4
Vod.copy() -> a shallow copy of od
p87
sa(dp88
g1
Vfromkeys
p89
sg3
I01
sg10
L2L
sg4
VOD.fromkeys(S[, v]) -> New ordered dictionary with keys from S.\u000a        If not specified, the value defaults to None.\u000a\u000a        
p90
sa(dp91
g1
Vget
p92
sg3
I01
sg10
L2L
sg4
VD.get(k[,d]) -> D[k] if k in D, else d.  d defaults to None.
p93
sa(dp94
g1
Vitems
p95
sg3
I01
sg10
L2L
sg4
Nsa(dp96
g1
Vkeys
p97
sg3
I01
sg10
L2L
sg4
Nsa(dp98
g1
Vmove_to_end
p99
sg3
I01
sg10
L2L
sg4
VMove an existing element to the end (or beginning if last==False).\u000a\u000a        Raises KeyError if the element does not exist.\u000a        When last=True, acts like a fast version of self[key]=self.pop(key).\u000a\u000a        
p100
sa(dp101
g1
Vpop
p102
sg3
I01
sg10
L2L
sg4
Vod.pop(k[,d]) -> v, remove specified key and return the corresponding\u000a        value.  If key is not found, d is returned if given, otherwise KeyError\u000a        is raised.\u000a\u000a        
p103
sa(dp104
g1
Vpopitem
p105
sg3
I01
sg10
L2L
sg4
VRemove and return a (key, value) pair from the dictionary.\u000a\u000aPairs are returned in LIFO order if last is true or FIFO order if false.
p106
sa(dp107
g1
Vsetdefault
p108
sg3
I01
sg10
L2L
sg4
Vod.setdefault(k[,d]) -> od.get(k,d), also set od[k]=d if k not in od
p109
sa(dp110
g1
Vupdate
p111
sg3
I01
sg10
L2L
sg4
Nsa(dp112
g1
Vvalues
p113
sg3
I01
sg10
L2L
sg4
Nsasg4
VDictionary that remembers insertion order
p114
sa(dp115
g1
g25
sg3
I01
sg10
L5L
sa(dp116
g1
V__loader__
p117
sg3
I01
sg10
L3L
sg6
(lp118
(dp119
g1
g16
sg3
I01
sg10
L5L
sa(dp120
g1
g20
sg3
I01
sg10
L5L
sa(dp121
g1
g22
sg3
I01
sg10
L2L
sg4
V__dir__() -> list\u000adefault dir() implementation
p122
sa(dp123
g1
g25
sg3
I01
sg10
L5L
sa(dp124
g1
g27
sg3
I01
sg10
L5L
sa(dp125
g1
g29
sg3
I01
sg10
L2L
sg4
Vdefault object formatter
p126
sa(dp127
g1
g32
sg3
I01
sg10
L5L
sa(dp128
g1
g34
sg3
I01
sg10
L5L
sa(dp129
g1
g39
sg3
I01
sg10
L5L
sa(dp130
g1
g41
sg3
I01
sg10
L5L
sa(dp131
g1
g43
sg3
I01
sg10
L5L
sa(dp132
g1
g45
sg3
I01
sg10
L2L
sg4
VThis method is called when a class is subclassed.\u000a\u000aThe default implementation does nothing. It may be\u000aoverridden to extend subclasses.\u000a
p133
sa(dp134
g1
g50
sg3
I01
sg10
L5L
sa(dp135
g1
g54
sg3
I01
sg10
L5L
sa(dp136
g1
V__module__
p137
sg3
I01
sg10
L5L
sa(dp138
g1
g56
sg3
I01
sg10
L5L
sa(dp139
g1
g58
sg3
I01
sg10
L2L
sg4
VCreate and return a new object.  See help(type) for accurate signature.
p140
sa(dp141
g1
g61
sg3
I01
sg10
L2L
sg4
Vhelper for pickle
p142
sa(dp143
g1
g64
sg3
I01
sg10
L2L
sg4
Vhelper for pickle
p144
sa(dp145
g1
g67
sg3
I01
sg10
L5L
sa(dp146
g1
g72
sg3
I01
sg10
L5L
sa(dp147
g1
g76
sg3
I01
sg10
L2L
sg4
V__sizeof__() -> int\u000asize of object in memory, in bytes
p148
sa(dp149
g1
g78
sg3
I01
sg10
L5L
sa(dp150
g1
g80
sg3
I01
sg10
L2L
sg4
VAbstract classes can override this to customize issubclass().\u000a\u000aThis is invoked early on by abc.ABCMeta.__subclasscheck__().\u000aIt should return True, False or NotImplemented.  If it returns\u000aNotImplemented, the normal algorithm is used.  Otherwise, it\u000aoverrides the normal algorithm (and the outcome is cached).\u000a
p151
sa(dp152
g1
V__weakref__
p153
sg3
I01
sg10
L5L
sa(dp154
g1
Vcreate_module
p155
sg3
I01
sg10
L5L
sa(dp156
g1
Vexec_module
p157
sg3
I01
sg10
L5L
sa(dp158
g1
Vfind_module
p159
sg3
I01
sg10
L5L
sa(dp160
g1
Vfind_spec
p161
sg3
I01
sg10
L5L
sa(dp162
g1
Vget_code
p163
sg3
I01
sg10
L5L
sa(dp164
g1
Vget_source
p165
sg3
I01
sg10
L5L
sa(dp166
g1
Vis_package
p167
sg3
I01
sg10
L5L
sa(dp168
g1
Vload_module
p169
sg3
I01
sg10
L5L
sa(dp170
g1
Vmodule_repr
p171
sg3
I01
sg10
L5L
sasg4
VMeta path import for built-in modules.\u000a\u000a    All methods are either class or static methods to avoid the need to\u000a    instantiate the class.\u000a\u000a    
p172
sa(dp173
g1
V__name__
p174
sg3
I01
sg10
L5L
sa(dp175
g1
V__package__
p176
sg3
I01
sg10
L5L
sa(dp177
g1
V__spec__
p178
sg3
I01
sg10
L5L
sa(dp179
g1
V_count_elements
p180
sg3
I01
sg10
L2L
sg4
V_count_elements(mapping, iterable) -> None\u000a\u000aCount elements in the iterable, updating the mapping
p181
sa(dp182
g1
V_deque_iterator
p183
sg3
I01
sg10
L3L
sg6
(lp184
(dp185
g1
g16
sg3
I01
sg10
L5L
sa(dp186
g1
g22
sg3
I01
sg10
L2L
sg4
V__dir__() -> list\u000adefault dir() implementation
p187
sa(dp188
g1
g25
sg3
I01
sg10
L5L
sa(dp189
g1
g27
sg3
I01
sg10
L5L
sa(dp190
g1
g29
sg3
I01
sg10
L2L
sg4
Vdefault object formatter
p191
sa(dp192
g1
g32
sg3
I01
sg10
L5L
sa(dp193
g1
g34
sg3
I01
sg10
L5L
sa(dp194
g1
g39
sg3
I01
sg10
L5L
sa(dp195
g1
g41
sg3
I01
sg10
L5L
sa(dp196
g1
g43
sg3
I01
sg10
L5L
sa(dp197
g1
g45
sg3
I01
sg10
L2L
sg4
VThis method is called when a class is subclassed.\u000a\u000aThe default implementation does nothing. It may be\u000aoverridden to extend subclasses.\u000a
p198
sa(dp199
g1
g48
sg3
I01
sg10
L5L
sa(dp200
g1
g50
sg3
I01
sg10
L5L
sa(dp201
g1
V__length_hint__
p202
sg3
I01
sg10
L2L
sg4
VPrivate method returning an estimate of len(list(it)).
p203
sa(dp204
g1
g54
sg3
I01
sg10
L5L
sa(dp205
g1
g56
sg3
I01
sg10
L5L
sa(dp206
g1
g58
sg3
I01
sg10
L2L
sg4
VCreate and return a new object.  See help(type) for accurate signature.
p207
sa(dp208
g1
V__next__
p209
sg3
I01
sg10
L5L
sa(dp210
g1
g61
sg3
I01
sg10
L2L
sg4
VReturn state information for pickling.
p211
sa(dp212
g1
g64
sg3
I01
sg10
L2L
sg4
Vhelper for pickle
p213
sa(dp214
g1
g67
sg3
I01
sg10
L5L
sa(dp215
g1
g72
sg3
I01
sg10
L5L
sa(dp216
g1
g76
sg3
I01
sg10
L2L
sg4
V__sizeof__() -> int\u000asize of object in memory, in bytes
p217
sa(dp218
g1
g78
sg3
I01
sg10
L5L
sa(dp219
g1
g80
sg3
I01
sg10
L2L
sg4
VAbstract classes can override this to customize issubclass().\u000a\u000aThis is invoked early on by abc.ABCMeta.__subclasscheck__().\u000aIt should return True, False or NotImplemented.  If it returns\u000aNotImplemented, the normal algorithm is used.  Otherwise, it\u000aoverrides the normal algorithm (and the outcome is cached).\u000a
p220
sasg4
Nsa(dp221
g1
V_deque_reverse_iterator
p222
sg3
I01
sg10
L3L
sg6
(lp223
(dp224
g1
g16
sg3
I01
sg10
L5L
sa(dp225
g1
g22
sg3
I01
sg10
L2L
sg4
V__dir__() -> list\u000adefault dir() implementation
p226
sa(dp227
g1
g25
sg3
I01
sg10
L5L
sa(dp228
g1
g27
sg3
I01
sg10
L5L
sa(dp229
g1
g29
sg3
I01
sg10
L2L
sg4
Vdefault object formatter
p230
sa(dp231
g1
g32
sg3
I01
sg10
L5L
sa(dp232
g1
g34
sg3
I01
sg10
L5L
sa(dp233
g1
g39
sg3
I01
sg10
L5L
sa(dp234
g1
g41
sg3
I01
sg10
L5L
sa(dp235
g1
g43
sg3
I01
sg10
L5L
sa(dp236
g1
g45
sg3
I01
sg10
L2L
sg4
VThis method is called when a class is subclassed.\u000a\u000aThe default implementation does nothing. It may be\u000aoverridden to extend subclasses.\u000a
p237
sa(dp238
g1
g48
sg3
I01
sg10
L5L
sa(dp239
g1
g50
sg3
I01
sg10
L5L
sa(dp240
g1
g202
sg3
I01
sg10
L2L
sg4
VPrivate method returning an estimate of len(list(it)).
p241
sa(dp242
g1
g54
sg3
I01
sg10
L5L
sa(dp243
g1
g56
sg3
I01
sg10
L5L
sa(dp244
g1
g58
sg3
I01
sg10
L2L
sg4
VCreate and return a new object.  See help(type) for accurate signature.
p245
sa(dp246
g1
g209
sg3
I01
sg10
L5L
sa(dp247
g1
g61
sg3
I01
sg10
L2L
sg4
VReturn state information for pickling.
p248
sa(dp249
g1
g64
sg3
I01
sg10
L2L
sg4
Vhelper for pickle
p250
sa(dp251
g1
g67
sg3
I01
sg10
L5L
sa(dp252
g1
g72
sg3
I01
sg10
L5L
sa(dp253
g1
g76
sg3
I01
sg10
L2L
sg4
V__sizeof__() -> int\u000asize of object in memory, in bytes
p254
sa(dp255
g1
g78
sg3
I01
sg10
L5L
sa(dp256
g1
g80
sg3
I01
sg10
L2L
sg4
VAbstract classes can override this to customize issubclass().\u000a\u000aThis is invoked early on by abc.ABCMeta.__subclasscheck__().\u000aIt should return True, False or NotImplemented.  If it returns\u000aNotImplemented, the normal algorithm is used.  Otherwise, it\u000aoverrides the normal algorithm (and the outcome is cached).\u000a
p257
sasg4
Nsa(dp258
g1
Vdefaultdict
p259
sg3
I01
sg10
L3L
sg6
(lp260
(dp261
g1
g13
sg3
I01
sg10
L2L
sg4
VTrue if D has a key k, else False.
p262
sa(dp263
g1
V__copy__
p264
sg3
I01
sg10
L2L
sg4
VD.copy() -> a shallow copy of D.
p265
sa(dp266
g1
g16
sg3
I01
sg10
L5L
sa(dp267
g1
g18
sg3
I01
sg10
L5L
sa(dp268
g1
g22
sg3
I01
sg10
L2L
sg4
V__dir__() -> list\u000adefault dir() implementation
p269
sa(dp270
g1
g25
sg3
I01
sg10
L5L
sa(dp271
g1
g27
sg3
I01
sg10
L5L
sa(dp272
g1
g29
sg3
I01
sg10
L2L
sg4
Vdefault object formatter
p273
sa(dp274
g1
g32
sg3
I01
sg10
L5L
sa(dp275
g1
g34
sg3
I01
sg10
L5L
sa(dp276
g1
g36
sg3
I01
sg10
L2L
sg4
Vx.__getitem__(y) <==> x[y]
p277
sa(dp278
g1
g39
sg3
I01
sg10
L5L
sa(dp279
g1
g41
sg3
I01
sg10
L5L
sa(dp280
g1
g43
sg3
I01
sg10
L5L
sa(dp281
g1
g45
sg3
I01
sg10
L2L
sg4
VThis method is called when a class is subclassed.\u000a\u000aThe default implementation does nothing. It may be\u000aoverridden to extend subclasses.\u000a
p282
sa(dp283
g1
g48
sg3
I01
sg10
L5L
sa(dp284
g1
g50
sg3
I01
sg10
L5L
sa(dp285
g1
g52
sg3
I01
sg10
L5L
sa(dp286
g1
g54
sg3
I01
sg10
L5L
sa(dp287
g1
V__missing__
p288
sg3
I01
sg10
L2L
sg4
V__missing__(key) # Called by __getitem__ for missing key; pseudo-code:\u000a  if self.default_factory is None: raise KeyError((key,))\u000a  self[key] = value = self.default_factory()\u000a  return value\u000a
p289
sa(dp290
g1
g56
sg3
I01
sg10
L5L
sa(dp291
g1
g58
sg3
I01
sg10
L2L
sg4
VCreate and return a new object.  See help(type) for accurate signature.
p292
sa(dp293
g1
g61
sg3
I01
sg10
L2L
sg4
VReturn state information for pickling.
p294
sa(dp295
g1
g64
sg3
I01
sg10
L2L
sg4
Vhelper for pickle
p296
sa(dp297
g1
g67
sg3
I01
sg10
L5L
sa(dp298
g1
g72
sg3
I01
sg10
L5L
sa(dp299
g1
g74
sg3
I01
sg10
L5L
sa(dp300
g1
g76
sg3
I01
sg10
L2L
sg4
VD.__sizeof__() -> size of D in memory, in bytes
p301
sa(dp302
g1
g78
sg3
I01
sg10
L5L
sa(dp303
g1
g80
sg3
I01
sg10
L2L
sg4
VAbstract classes can override this to customize issubclass().\u000a\u000aThis is invoked early on by abc.ABCMeta.__subclasscheck__().\u000aIt should return True, False or NotImplemented.  If it returns\u000aNotImplemented, the normal algorithm is used.  Otherwise, it\u000aoverrides the normal algorithm (and the outcome is cached).\u000a
p304
sa(dp305
g1
g83
sg3
I01
sg10
L2L
sg4
VD.clear() -> None.  Remove all items from D.
p306
sa(dp307
g1
g86
sg3
I01
sg10
L2L
sg4
VD.copy() -> a shallow copy of D.
p308
sa(dp309
g1
Vdefault_factory
p310
sg3
I01
sg10
L5L
sa(dp311
g1
g89
sg3
I01
sg10
L2L
sg4
VReturns a new dict with keys from iterable and values equal to value.
p312
sa(dp313
g1
g92
sg3
I01
sg10
L2L
sg4
VD.get(k[,d]) -> D[k] if k in D, else d.  d defaults to None.
p314
sa(dp315
g1
g95
sg3
I01
sg10
L2L
sg4
VD.items() -> a set-like object providing a view on D's items
p316
sa(dp317
g1
g97
sg3
I01
sg10
L2L
sg4
VD.keys() -> a set-like object providing a view on D's keys
p318
sa(dp319
g1
g102
sg3
I01
sg10
L2L
sg4
VD.pop(k[,d]) -> v, remove specified key and return the corresponding value.\u000aIf key is not found, d is returned if given, otherwise KeyError is raised
p320
sa(dp321
g1
g105
sg3
I01
sg10
L2L
sg4
VD.popitem() -> (k, v), remove and return some (key, value) pair as a\u000a2-tuple; but raise KeyError if D is empty.
p322
sa(dp323
g1
g108
sg3
I01
sg10
L2L
sg4
VD.setdefault(k[,d]) -> D.get(k,d), also set D[k]=d if k not in D
p324
sa(dp325
g1
g111
sg3
I01
sg10
L2L
sg4
VD.update([E, ]**F) -> None.  Update D from dict/iterable E and F.\u000aIf E is present and has a .keys() method, then does:  for k in E: D[k] = E[k]\u000aIf E is present and lacks a .keys() method, then does:  for k, v in E: D[k] = v\u000aIn either case, this is followed by: for k in F:  D[k] = F[k]
p326
sa(dp327
g1
g113
sg3
I01
sg10
L2L
sg4
VD.values() -> an object providing a view on D's values
p328
sasg4
Vdefaultdict(default_factory[, ...]) --> dict with default factory\u000a\u000aThe default factory is called without arguments to produce\u000aa new value when a key is not present, in __getitem__ only.\u000aA defaultdict compares equal to a dict with the same items.\u000aAll remaining arguments are treated the same as if they were\u000apassed to the dict constructor, including keyword arguments.\u000a
p329
sa(dp330
g1
Vdeque
p331
sg3
I01
sg10
L3L
sg6
(lp332
(dp333
g1
V__add__
p334
sg3
I01
sg10
L5L
sa(dp335
g1
V__bool__
p336
sg3
I01
sg10
L5L
sa(dp337
g1
g13
sg3
I01
sg10
L5L
sa(dp338
g1
g264
sg3
I01
sg10
L2L
sg4
VReturn a shallow copy of a deque.
p339
sa(dp340
g1
g16
sg3
I01
sg10
L5L
sa(dp341
g1
g18
sg3
I01
sg10
L5L
sa(dp342
g1
g22
sg3
I01
sg10
L2L
sg4
V__dir__() -> list\u000adefault dir() implementation
p343
sa(dp344
g1
g25
sg3
I01
sg10
L5L
sa(dp345
g1
g27
sg3
I01
sg10
L5L
sa(dp346
g1
g29
sg3
I01
sg10
L2L
sg4
Vdefault object formatter
p347
sa(dp348
g1
g32
sg3
I01
sg10
L5L
sa(dp349
g1
g34
sg3
I01
sg10
L5L
sa(dp350
g1
g36
sg3
I01
sg10
L5L
sa(dp351
g1
g39
sg3
I01
sg10
L5L
sa(dp352
g1
g41
sg3
I01
sg10
L5L
sa(dp353
g1
V__iadd__
p354
sg3
I01
sg10
L5L
sa(dp355
g1
V__imul__
p356
sg3
I01
sg10
L5L
sa(dp357
g1
g43
sg3
I01
sg10
L5L
sa(dp358
g1
g45
sg3
I01
sg10
L2L
sg4
VThis method is called when a class is subclassed.\u000a\u000aThe default implementation does nothing. It may be\u000aoverridden to extend subclasses.\u000a
p359
sa(dp360
g1
g48
sg3
I01
sg10
L5L
sa(dp361
g1
g50
sg3
I01
sg10
L5L
sa(dp362
g1
g52
sg3
I01
sg10
L5L
sa(dp363
g1
g54
sg3
I01
sg10
L5L
sa(dp364
g1
V__mul__
p365
sg3
I01
sg10
L5L
sa(dp366
g1
g56
sg3
I01
sg10
L5L
sa(dp367
g1
g58
sg3
I01
sg10
L2L
sg4
VCreate and return a new object.  See help(type) for accurate signature.
p368
sa(dp369
g1
g61
sg3
I01
sg10
L2L
sg4
VReturn state information for pickling.
p370
sa(dp371
g1
g64
sg3
I01
sg10
L2L
sg4
Vhelper for pickle
p372
sa(dp373
g1
g67
sg3
I01
sg10
L5L
sa(dp374
g1
g69
sg3
I01
sg10
L2L
sg4
VD.__reversed__() -- return a reverse iterator over the deque
p375
sa(dp376
g1
V__rmul__
p377
sg3
I01
sg10
L5L
sa(dp378
g1
g72
sg3
I01
sg10
L5L
sa(dp379
g1
g74
sg3
I01
sg10
L5L
sa(dp380
g1
g76
sg3
I01
sg10
L2L
sg4
VD.__sizeof__() -- size of D in memory, in bytes
p381
sa(dp382
g1
g78
sg3
I01
sg10
L5L
sa(dp383
g1
g80
sg3
I01
sg10
L2L
sg4
VAbstract classes can override this to customize issubclass().\u000a\u000aThis is invoked early on by abc.ABCMeta.__subclasscheck__().\u000aIt should return True, False or NotImplemented.  If it returns\u000aNotImplemented, the normal algorithm is used.  Otherwise, it\u000aoverrides the normal algorithm (and the outcome is cached).\u000a
p384
sa(dp385
g1
Vappend
p386
sg3
I01
sg10
L2L
sg4
VAdd an element to the right side of the deque.
p387
sa(dp388
g1
Vappendleft
p389
sg3
I01
sg10
L2L
sg4
VAdd an element to the left side of the deque.
p390
sa(dp391
g1
g83
sg3
I01
sg10
L2L
sg4
VRemove all elements from the deque.
p392
sa(dp393
g1
g86
sg3
I01
sg10
L2L
sg4
VReturn a shallow copy of a deque.
p394
sa(dp395
g1
Vcount
p396
sg3
I01
sg10
L2L
sg4
VD.count(value) -> integer -- return number of occurrences of value
p397
sa(dp398
g1
Vextend
p399
sg3
I01
sg10
L2L
sg4
VExtend the right side of the deque with elements from the iterable
p400
sa(dp401
g1
Vextendleft
p402
sg3
I01
sg10
L2L
sg4
VExtend the left side of the deque with elements from the iterable
p403
sa(dp404
g1
Vindex
p405
sg3
I01
sg10
L2L
sg4
VD.index(value, [start, [stop]]) -> integer -- return first index of value.\u000aRaises ValueError if the value is not present.
p406
sa(dp407
g1
Vinsert
p408
sg3
I01
sg10
L2L
sg4
VD.insert(index, object) -- insert object before index
p409
sa(dp410
g1
Vmaxlen
p411
sg3
I01
sg10
L5L
sa(dp412
g1
g102
sg3
I01
sg10
L2L
sg4
VRemove and return the rightmost element.
p413
sa(dp414
g1
Vpopleft
p415
sg3
I01
sg10
L2L
sg4
VRemove and return the leftmost element.
p416
sa(dp417
g1
Vremove
p418
sg3
I01
sg10
L2L
sg4
VD.remove(value) -- remove first occurrence of value.
p419
sa(dp420
g1
Vreverse
p421
sg3
I01
sg10
L2L
sg4
VD.reverse() -- reverse *IN PLACE*
p422
sa(dp423
g1
Vrotate
p424
sg3
I01
sg10
L2L
sg4
VRotate the deque n steps to the right (default n=1).  If n is negative, rotates left.
p425
sasg4
Vdeque([iterable[, maxlen]]) --> deque object\u000a\u000aA list-like sequence optimized for data accesses near its endpoints.
p426
sasg10
L1L
s.