(dp0
Vname
p1
V_datetime
p2
sVis_builtin
p3
I01
sVdoc
p4
VFast implementation of the datetime type.
p5
sVchilds
p6
(lp7
(dp8
g1
VMAXYEAR
p9
sg3
I01
sVtype
p10
L5L
sa(dp11
g1
VMINYEAR
p12
sg3
I01
sg10
L5L
sa(dp13
g1
V__doc__
p14
sg3
I01
sg10
L5L
sa(dp15
g1
V__loader__
p16
sg3
I01
sg10
L3L
sg6
(lp17
(dp18
g1
V__delattr__
p19
sg3
I01
sg10
L5L
sa(dp20
g1
V__dict__
p21
sg3
I01
sg10
L5L
sa(dp22
g1
V__dir__
p23
sg3
I01
sg10
L2L
sg4
V__dir__() -> list\u000adefault dir() implementation
p24
sa(dp25
g1
g14
sg3
I01
sg10
L5L
sa(dp26
g1
V__eq__
p27
sg3
I01
sg10
L5L
sa(dp28
g1
V__format__
p29
sg3
I01
sg10
L2L
sg4
Vdefault object formatter
p30
sa(dp31
g1
V__ge__
p32
sg3
I01
sg10
L5L
sa(dp33
g1
V__getattribute__
p34
sg3
I01
sg10
L5L
sa(dp35
g1
V__gt__
p36
sg3
I01
sg10
L5L
sa(dp37
g1
V__hash__
p38
sg3
I01
sg10
L5L
sa(dp39
g1
V__init__
p40
sg3
I01
sg10
L5L
sa(dp41
g1
V__init_subclass__
p42
sg3
I01
sg10
L2L
sg4
VThis method is called when a class is subclassed.\u000a\u000aThe default implementation does nothing. It may be\u000aoverridden to extend subclasses.\u000a
p43
sa(dp44
g1
V__le__
p45
sg3
I01
sg10
L5L
sa(dp46
g1
V__lt__
p47
sg3
I01
sg10
L5L
sa(dp48
g1
V__module__
p49
sg3
I01
sg10
L5L
sa(dp50
g1
V__ne__
p51
sg3
I01
sg10
L5L
sa(dp52
g1
V__new__
p53
sg3
I01
sg10
L2L
sg4
VCreate and return a new object.  See help(type) for accurate signature.
p54
sa(dp55
g1
V__reduce__
p56
sg3
I01
sg10
L2L
sg4
Vhelper for pickle
p57
sa(dp58
g1
V__reduce_ex__
p59
sg3
I01
sg10
L2L
sg4
Vhelper for pickle
p60
sa(dp61
g1
V__repr__
p62
sg3
I01
sg10
L5L
sa(dp63
g1
V__setattr__
p64
sg3
I01
sg10
L5L
sa(dp65
g1
V__sizeof__
p66
sg3
I01
sg10
L2L
sg4
V__sizeof__() -> int\u000asize of object in memory, in bytes
p67
sa(dp68
g1
V__str__
p69
sg3
I01
sg10
L5L
sa(dp70
g1
V__subclasshook__
p71
sg3
I01
sg10
L2L
sg4
VAbstract classes can override this to customize issubclass().\u000a\u000aThis is invoked early on by abc.ABCMeta.__subclasscheck__().\u000aIt should return True, False or NotImplemented.  If it returns\u000aNotImplemented, the normal algorithm is used.  Otherwise, it\u000aoverrides the normal algorithm (and the outcome is cached).\u000a
p72
sa(dp73
g1
V__weakref__
p74
sg3
I01
sg10
L5L
sa(dp75
g1
Vcreate_module
p76
sg3
I01
sg10
L5L
sa(dp77
g1
Vexec_module
p78
sg3
I01
sg10
L5L
sa(dp79
g1
Vfind_module
p80
sg3
I01
sg10
L5L
sa(dp81
g1
Vfind_spec
p82
sg3
I01
sg10
L5L
sa(dp83
g1
Vget_code
p84
sg3
I01
sg10
L5L
sa(dp85
g1
Vget_source
p86
sg3
I01
sg10
L5L
sa(dp87
g1
Vis_package
p88
sg3
I01
sg10
L5L
sa(dp89
g1
Vload_module
p90
sg3
I01
sg10
L5L
sa(dp91
g1
Vmodule_repr
p92
sg3
I01
sg10
L5L
sasg4
VMeta path import for built-in modules.\u000a\u000a    All methods are either class or static methods to avoid the need to\u000a    instantiate the class.\u000a\u000a    
p93
sa(dp94
g1
V__name__
p95
sg3
I01
sg10
L5L
sa(dp96
g1
V__package__
p97
sg3
I01
sg10
L5L
sa(dp98
g1
V__spec__
p99
sg3
I01
sg10
L5L
sa(dp100
g1
Vdate
p101
sg3
I01
sg10
L3L
sg6
(lp102
(dp103
g1
V__add__
p104
sg3
I01
sg10
L5L
sa(dp105
g1
g19
sg3
I01
sg10
L5L
sa(dp106
g1
g23
sg3
I01
sg10
L2L
sg4
V__dir__() -> list\u000adefault dir() implementation
p107
sa(dp108
g1
g14
sg3
I01
sg10
L5L
sa(dp109
g1
g27
sg3
I01
sg10
L5L
sa(dp110
g1
g29
sg3
I01
sg10
L2L
sg4
VFormats self with strftime.
p111
sa(dp112
g1
g32
sg3
I01
sg10
L5L
sa(dp113
g1
g34
sg3
I01
sg10
L5L
sa(dp114
g1
g36
sg3
I01
sg10
L5L
sa(dp115
g1
g38
sg3
I01
sg10
L5L
sa(dp116
g1
g40
sg3
I01
sg10
L5L
sa(dp117
g1
g42
sg3
I01
sg10
L2L
sg4
VThis method is called when a class is subclassed.\u000a\u000aThe default implementation does nothing. It may be\u000aoverridden to extend subclasses.\u000a
p118
sa(dp119
g1
g45
sg3
I01
sg10
L5L
sa(dp120
g1
g47
sg3
I01
sg10
L5L
sa(dp121
g1
g51
sg3
I01
sg10
L5L
sa(dp122
g1
g53
sg3
I01
sg10
L2L
sg4
VCreate and return a new object.  See help(type) for accurate signature.
p123
sa(dp124
g1
V__radd__
p125
sg3
I01
sg10
L5L
sa(dp126
g1
g56
sg3
I01
sg10
L2L
sg4
V__reduce__() -> (cls, state)
p127
sa(dp128
g1
g59
sg3
I01
sg10
L2L
sg4
Vhelper for pickle
p129
sa(dp130
g1
g62
sg3
I01
sg10
L5L
sa(dp131
g1
V__rsub__
p132
sg3
I01
sg10
L5L
sa(dp133
g1
g64
sg3
I01
sg10
L5L
sa(dp134
g1
g66
sg3
I01
sg10
L2L
sg4
V__sizeof__() -> int\u000asize of object in memory, in bytes
p135
sa(dp136
g1
g69
sg3
I01
sg10
L5L
sa(dp137
g1
V__sub__
p138
sg3
I01
sg10
L5L
sa(dp139
g1
g71
sg3
I01
sg10
L2L
sg4
VAbstract classes can override this to customize issubclass().\u000a\u000aThis is invoked early on by abc.ABCMeta.__subclasscheck__().\u000aIt should return True, False or NotImplemented.  If it returns\u000aNotImplemented, the normal algorithm is used.  Otherwise, it\u000aoverrides the normal algorithm (and the outcome is cached).\u000a
p140
sa(dp141
g1
Vctime
p142
sg3
I01
sg10
L2L
sg4
VReturn ctime() style string.
p143
sa(dp144
g1
Vday
p145
sg3
I01
sg10
L5L
sa(dp146
g1
Vfromordinal
p147
sg3
I01
sg10
L2L
sg4
Vint -> date corresponding to a proleptic Gregorian ordinal.
p148
sa(dp149
g1
Vfromtimestamp
p150
sg3
I01
sg10
L2L
sg4
Vtimestamp -> local date from a POSIX timestamp (like time.time()).
p151
sa(dp152
g1
Visocalendar
p153
sg3
I01
sg10
L2L
sg4
VReturn a 3-tuple containing ISO year, week number, and weekday.
p154
sa(dp155
g1
Visoformat
p156
sg3
I01
sg10
L2L
sg4
VReturn string in ISO 8601 format, YYYY-MM-DD.
p157
sa(dp158
g1
Visoweekday
p159
sg3
I01
sg10
L2L
sg4
VReturn the day of the week represented by the date.\u000aMonday == 1 ... Sunday == 7
p160
sa(dp161
g1
Vmax
p162
sg3
I01
sg10
L5L
sa(dp163
g1
Vmin
p164
sg3
I01
sg10
L5L
sa(dp165
g1
Vmonth
p166
sg3
I01
sg10
L5L
sa(dp167
g1
Vreplace
p168
sg3
I01
sg10
L2L
sg4
VReturn date with new specified fields.
p169
sa(dp170
g1
Vresolution
p171
sg3
I01
sg10
L5L
sa(dp172
g1
Vstrftime
p173
sg3
I01
sg10
L2L
sg4
Vformat -> strftime() style string.
p174
sa(dp175
g1
Vtimetuple
p176
sg3
I01
sg10
L2L
sg4
VReturn time tuple, compatible with time.localtime().
p177
sa(dp178
g1
Vtoday
p179
sg3
I01
sg10
L2L
sg4
VCurrent date or datetime:  same as self.__class__.fromtimestamp(time.time()).
p180
sa(dp181
g1
Vtoordinal
p182
sg3
I01
sg10
L2L
sg4
VReturn proleptic Gregorian ordinal.  January 1 of year 1 is day 1.
p183
sa(dp184
g1
Vweekday
p185
sg3
I01
sg10
L2L
sg4
VReturn the day of the week represented by the date.\u000aMonday == 0 ... Sunday == 6
p186
sa(dp187
g1
Vyear
p188
sg3
I01
sg10
L5L
sasg4
Vdate(year, month, day) --> date object
p189
sa(dp190
g1
Vdatetime
p191
sg3
I01
sg10
L3L
sg6
(lp192
(dp193
g1
g104
sg3
I01
sg10
L5L
sa(dp194
g1
g19
sg3
I01
sg10
L5L
sa(dp195
g1
g23
sg3
I01
sg10
L2L
sg4
V__dir__() -> list\u000adefault dir() implementation
p196
sa(dp197
g1
g14
sg3
I01
sg10
L5L
sa(dp198
g1
g27
sg3
I01
sg10
L5L
sa(dp199
g1
g29
sg3
I01
sg10
L2L
sg4
VFormats self with strftime.
p200
sa(dp201
g1
g32
sg3
I01
sg10
L5L
sa(dp202
g1
g34
sg3
I01
sg10
L5L
sa(dp203
g1
g36
sg3
I01
sg10
L5L
sa(dp204
g1
g38
sg3
I01
sg10
L5L
sa(dp205
g1
g40
sg3
I01
sg10
L5L
sa(dp206
g1
g42
sg3
I01
sg10
L2L
sg4
VThis method is called when a class is subclassed.\u000a\u000aThe default implementation does nothing. It may be\u000aoverridden to extend subclasses.\u000a
p207
sa(dp208
g1
g45
sg3
I01
sg10
L5L
sa(dp209
g1
g47
sg3
I01
sg10
L5L
sa(dp210
g1
g51
sg3
I01
sg10
L5L
sa(dp211
g1
g53
sg3
I01
sg10
L2L
sg4
VCreate and return a new object.  See help(type) for accurate signature.
p212
sa(dp213
g1
g125
sg3
I01
sg10
L5L
sa(dp214
g1
g56
sg3
I01
sg10
L2L
sg4
V__reduce__() -> (cls, state)
p215
sa(dp216
g1
g59
sg3
I01
sg10
L2L
sg4
V__reduce_ex__(proto) -> (cls, state)
p217
sa(dp218
g1
g62
sg3
I01
sg10
L5L
sa(dp219
g1
g132
sg3
I01
sg10
L5L
sa(dp220
g1
g64
sg3
I01
sg10
L5L
sa(dp221
g1
g66
sg3
I01
sg10
L2L
sg4
V__sizeof__() -> int\u000asize of object in memory, in bytes
p222
sa(dp223
g1
g69
sg3
I01
sg10
L5L
sa(dp224
g1
g138
sg3
I01
sg10
L5L
sa(dp225
g1
g71
sg3
I01
sg10
L2L
sg4
VAbstract classes can override this to customize issubclass().\u000a\u000aThis is invoked early on by abc.ABCMeta.__subclasscheck__().\u000aIt should return True, False or NotImplemented.  If it returns\u000aNotImplemented, the normal algorithm is used.  Otherwise, it\u000aoverrides the normal algorithm (and the outcome is cached).\u000a
p226
sa(dp227
g1
Vastimezone
p228
sg3
I01
sg10
L2L
sg4
Vtz -> convert to local time in new timezone tz\u000a
p229
sa(dp230
g1
Vcombine
p231
sg3
I01
sg10
L2L
sg4
Vdate, time -> datetime with same date and time fields
p232
sa(dp233
g1
g142
sg3
I01
sg10
L2L
sg4
VReturn ctime() style string.
p234
sa(dp235
g1
g101
sg3
I01
sg10
L2L
sg4
VReturn date object with same year, month and day.
p236
sa(dp237
g1
g145
sg3
I01
sg10
L5L
sa(dp238
g1
Vdst
p239
sg3
I01
sg10
L2L
sg4
VReturn self.tzinfo.dst(self).
p240
sa(dp241
g1
Vfold
p242
sg3
I01
sg10
L5L
sa(dp243
g1
g147
sg3
I01
sg10
L2L
sg4
Vint -> date corresponding to a proleptic Gregorian ordinal.
p244
sa(dp245
g1
g150
sg3
I01
sg10
L2L
sg4
Vtimestamp[, tz] -> tz's local time from POSIX timestamp.
p246
sa(dp247
g1
Vhour
p248
sg3
I01
sg10
L5L
sa(dp249
g1
g153
sg3
I01
sg10
L2L
sg4
VReturn a 3-tuple containing ISO year, week number, and weekday.
p250
sa(dp251
g1
g156
sg3
I01
sg10
L2L
sg4
V[sep] -> string in ISO 8601 format, YYYY-MM-DDT[HH[:MM[:SS[.mmm[uuu]]]]][+HH:MM].\u000asep is used to separate the year from the time, and defaults to 'T'.\u000atimespec specifies what components of the time to include (allowed values are 'auto', 'hours', 'minutes', 'seconds', 'milliseconds', and 'microseconds').\u000a
p252
sa(dp253
g1
g159
sg3
I01
sg10
L2L
sg4
VReturn the day of the week represented by the date.\u000aMonday == 1 ... Sunday == 7
p254
sa(dp255
g1
g162
sg3
I01
sg10
L5L
sa(dp256
g1
Vmicrosecond
p257
sg3
I01
sg10
L5L
sa(dp258
g1
g164
sg3
I01
sg10
L5L
sa(dp259
g1
Vminute
p260
sg3
I01
sg10
L5L
sa(dp261
g1
g166
sg3
I01
sg10
L5L
sa(dp262
g1
Vnow
p263
sg3
I01
sg10
L2L
sg4
VReturns new datetime object representing current time local to tz.\u000a\u000a  tz\u000a    Timezone object.\u000a\u000aIf no tz is specified, uses local timezone.
p264
sa(dp265
g1
g168
sg3
I01
sg10
L2L
sg4
VReturn datetime with new specified fields.
p266
sa(dp267
g1
g171
sg3
I01
sg10
L5L
sa(dp268
g1
Vsecond
p269
sg3
I01
sg10
L5L
sa(dp270
g1
g173
sg3
I01
sg10
L2L
sg4
Vformat -> strftime() style string.
p271
sa(dp272
g1
Vstrptime
p273
sg3
I01
sg10
L2L
sg4
Vstring, format -> new datetime parsed from a string (like time.strptime()).
p274
sa(dp275
g1
Vtime
p276
sg3
I01
sg10
L2L
sg4
VReturn time object with same time but with tzinfo=None.
p277
sa(dp278
g1
Vtimestamp
p279
sg3
I01
sg10
L2L
sg4
VReturn POSIX timestamp as float.
p280
sa(dp281
g1
g176
sg3
I01
sg10
L2L
sg4
VReturn time tuple, compatible with time.localtime().
p282
sa(dp283
g1
Vtimetz
p284
sg3
I01
sg10
L2L
sg4
VReturn time object with same time and tzinfo.
p285
sa(dp286
g1
g179
sg3
I01
sg10
L2L
sg4
VCurrent date or datetime:  same as self.__class__.fromtimestamp(time.time()).
p287
sa(dp288
g1
g182
sg3
I01
sg10
L2L
sg4
VReturn proleptic Gregorian ordinal.  January 1 of year 1 is day 1.
p289
sa(dp290
g1
Vtzinfo
p291
sg3
I01
sg10
L5L
sa(dp292
g1
Vtzname
p293
sg3
I01
sg10
L2L
sg4
VReturn self.tzinfo.tzname(self).
p294
sa(dp295
g1
Vutcfromtimestamp
p296
sg3
I01
sg10
L2L
sg4
VConstruct a naive UTC datetime from a POSIX timestamp.
p297
sa(dp298
g1
Vutcnow
p299
sg3
I01
sg10
L2L
sg4
VReturn a new datetime representing UTC day and time.
p300
sa(dp301
g1
Vutcoffset
p302
sg3
I01
sg10
L2L
sg4
VReturn self.tzinfo.utcoffset(self).
p303
sa(dp304
g1
Vutctimetuple
p305
sg3
I01
sg10
L2L
sg4
VReturn UTC time tuple, compatible with time.localtime().
p306
sa(dp307
g1
g185
sg3
I01
sg10
L2L
sg4
VReturn the day of the week represented by the date.\u000aMonday == 0 ... Sunday == 6
p308
sa(dp309
g1
g188
sg3
I01
sg10
L5L
sasg4
Vdatetime(year, month, day[, hour[, minute[, second[, microsecond[,tzinfo]]]]])\u000a\u000aThe year, month and day arguments are required. tzinfo may be None, or an\u000ainstance of a tzinfo subclass. The remaining arguments may be ints.\u000a
p310
sa(dp311
g1
Vdatetime_CAPI
p312
sg3
I01
sg10
L5L
sa(dp313
g1
g276
sg3
I01
sg10
L3L
sg6
(lp314
(dp315
g1
g19
sg3
I01
sg10
L5L
sa(dp316
g1
g23
sg3
I01
sg10
L2L
sg4
V__dir__() -> list\u000adefault dir() implementation
p317
sa(dp318
g1
g14
sg3
I01
sg10
L5L
sa(dp319
g1
g27
sg3
I01
sg10
L5L
sa(dp320
g1
g29
sg3
I01
sg10
L2L
sg4
VFormats self with strftime.
p321
sa(dp322
g1
g32
sg3
I01
sg10
L5L
sa(dp323
g1
g34
sg3
I01
sg10
L5L
sa(dp324
g1
g36
sg3
I01
sg10
L5L
sa(dp325
g1
g38
sg3
I01
sg10
L5L
sa(dp326
g1
g40
sg3
I01
sg10
L5L
sa(dp327
g1
g42
sg3
I01
sg10
L2L
sg4
VThis method is called when a class is subclassed.\u000a\u000aThe default implementation does nothing. It may be\u000aoverridden to extend subclasses.\u000a
p328
sa(dp329
g1
g45
sg3
I01
sg10
L5L
sa(dp330
g1
g47
sg3
I01
sg10
L5L
sa(dp331
g1
g51
sg3
I01
sg10
L5L
sa(dp332
g1
g53
sg3
I01
sg10
L2L
sg4
VCreate and return a new object.  See help(type) for accurate signature.
p333
sa(dp334
g1
g56
sg3
I01
sg10
L2L
sg4
V__reduce__() -> (cls, state)
p335
sa(dp336
g1
g59
sg3
I01
sg10
L2L
sg4
V__reduce_ex__(proto) -> (cls, state)
p337
sa(dp338
g1
g62
sg3
I01
sg10
L5L
sa(dp339
g1
g64
sg3
I01
sg10
L5L
sa(dp340
g1
g66
sg3
I01
sg10
L2L
sg4
V__sizeof__() -> int\u000asize of object in memory, in bytes
p341
sa(dp342
g1
g69
sg3
I01
sg10
L5L
sa(dp343
g1
g71
sg3
I01
sg10
L2L
sg4
VAbstract classes can override this to customize issubclass().\u000a\u000aThis is invoked early on by abc.ABCMeta.__subclasscheck__().\u000aIt should return True, False or NotImplemented.  If it returns\u000aNotImplemented, the normal algorithm is used.  Otherwise, it\u000aoverrides the normal algorithm (and the outcome is cached).\u000a
p344
sa(dp345
g1
g239
sg3
I01
sg10
L2L
sg4
VReturn self.tzinfo.dst(self).
p346
sa(dp347
g1
g242
sg3
I01
sg10
L5L
sa(dp348
g1
g248
sg3
I01
sg10
L5L
sa(dp349
g1
g156
sg3
I01
sg10
L2L
sg4
VReturn string in ISO 8601 format, [HH[:MM[:SS[.mmm[uuu]]]]][+HH:MM].\u000a\u000atimespec specifies what components of the time to include.\u000a
p350
sa(dp351
g1
g162
sg3
I01
sg10
L5L
sa(dp352
g1
g257
sg3
I01
sg10
L5L
sa(dp353
g1
g164
sg3
I01
sg10
L5L
sa(dp354
g1
g260
sg3
I01
sg10
L5L
sa(dp355
g1
g168
sg3
I01
sg10
L2L
sg4
VReturn time with new specified fields.
p356
sa(dp357
g1
g171
sg3
I01
sg10
L5L
sa(dp358
g1
g269
sg3
I01
sg10
L5L
sa(dp359
g1
g173
sg3
I01
sg10
L2L
sg4
Vformat -> strftime() style string.
p360
sa(dp361
g1
g291
sg3
I01
sg10
L5L
sa(dp362
g1
g293
sg3
I01
sg10
L2L
sg4
VReturn self.tzinfo.tzname(self).
p363
sa(dp364
g1
g302
sg3
I01
sg10
L2L
sg4
VReturn self.tzinfo.utcoffset(self).
p365
sasg4
Vtime([hour[, minute[, second[, microsecond[, tzinfo]]]]]) --> a time object\u000a\u000aAll arguments are optional. tzinfo may be None, or an instance of\u000aa tzinfo subclass. The remaining arguments may be ints.\u000a
p366
sa(dp367
g1
Vtimedelta
p368
sg3
I01
sg10
L3L
sg6
(lp369
(dp370
g1
V__abs__
p371
sg3
I01
sg10
L5L
sa(dp372
g1
g104
sg3
I01
sg10
L5L
sa(dp373
g1
V__bool__
p374
sg3
I01
sg10
L5L
sa(dp375
g1
g19
sg3
I01
sg10
L5L
sa(dp376
g1
g23
sg3
I01
sg10
L2L
sg4
V__dir__() -> list\u000adefault dir() implementation
p377
sa(dp378
g1
V__divmod__
p379
sg3
I01
sg10
L5L
sa(dp380
g1
g14
sg3
I01
sg10
L5L
sa(dp381
g1
g27
sg3
I01
sg10
L5L
sa(dp382
g1
V__floordiv__
p383
sg3
I01
sg10
L5L
sa(dp384
g1
g29
sg3
I01
sg10
L2L
sg4
Vdefault object formatter
p385
sa(dp386
g1
g32
sg3
I01
sg10
L5L
sa(dp387
g1
g34
sg3
I01
sg10
L5L
sa(dp388
g1
g36
sg3
I01
sg10
L5L
sa(dp389
g1
g38
sg3
I01
sg10
L5L
sa(dp390
g1
g40
sg3
I01
sg10
L5L
sa(dp391
g1
g42
sg3
I01
sg10
L2L
sg4
VThis method is called when a class is subclassed.\u000a\u000aThe default implementation does nothing. It may be\u000aoverridden to extend subclasses.\u000a
p392
sa(dp393
g1
g45
sg3
I01
sg10
L5L
sa(dp394
g1
g47
sg3
I01
sg10
L5L
sa(dp395
g1
V__mod__
p396
sg3
I01
sg10
L5L
sa(dp397
g1
V__mul__
p398
sg3
I01
sg10
L5L
sa(dp399
g1
g51
sg3
I01
sg10
L5L
sa(dp400
g1
V__neg__
p401
sg3
I01
sg10
L5L
sa(dp402
g1
g53
sg3
I01
sg10
L2L
sg4
VCreate and return a new object.  See help(type) for accurate signature.
p403
sa(dp404
g1
V__pos__
p405
sg3
I01
sg10
L5L
sa(dp406
g1
g125
sg3
I01
sg10
L5L
sa(dp407
g1
V__rdivmod__
p408
sg3
I01
sg10
L5L
sa(dp409
g1
g56
sg3
I01
sg10
L2L
sg4
V__reduce__() -> (cls, state)
p410
sa(dp411
g1
g59
sg3
I01
sg10
L2L
sg4
Vhelper for pickle
p412
sa(dp413
g1
g62
sg3
I01
sg10
L5L
sa(dp414
g1
V__rfloordiv__
p415
sg3
I01
sg10
L5L
sa(dp416
g1
V__rmod__
p417
sg3
I01
sg10
L5L
sa(dp418
g1
V__rmul__
p419
sg3
I01
sg10
L5L
sa(dp420
g1
g132
sg3
I01
sg10
L5L
sa(dp421
g1
V__rtruediv__
p422
sg3
I01
sg10
L5L
sa(dp423
g1
g64
sg3
I01
sg10
L5L
sa(dp424
g1
g66
sg3
I01
sg10
L2L
sg4
V__sizeof__() -> int\u000asize of object in memory, in bytes
p425
sa(dp426
g1
g69
sg3
I01
sg10
L5L
sa(dp427
g1
g138
sg3
I01
sg10
L5L
sa(dp428
g1
g71
sg3
I01
sg10
L2L
sg4
VAbstract classes can override this to customize issubclass().\u000a\u000aThis is invoked early on by abc.ABCMeta.__subclasscheck__().\u000aIt should return True, False or NotImplemented.  If it returns\u000aNotImplemented, the normal algorithm is used.  Otherwise, it\u000aoverrides the normal algorithm (and the outcome is cached).\u000a
p429
sa(dp430
g1
V__truediv__
p431
sg3
I01
sg10
L5L
sa(dp432
g1
Vdays
p433
sg3
I01
sg10
L5L
sa(dp434
g1
g162
sg3
I01
sg10
L5L
sa(dp435
g1
Vmicroseconds
p436
sg3
I01
sg10
L5L
sa(dp437
g1
g164
sg3
I01
sg10
L5L
sa(dp438
g1
g171
sg3
I01
sg10
L5L
sa(dp439
g1
Vseconds
p440
sg3
I01
sg10
L5L
sa(dp441
g1
Vtotal_seconds
p442
sg3
I01
sg10
L2L
sg4
VTotal seconds in the duration.
p443
sasg4
VDifference between two datetime values.
p444
sa(dp445
g1
Vtimezone
p446
sg3
I01
sg10
L3L
sg6
(lp447
(dp448
g1
g19
sg3
I01
sg10
L5L
sa(dp449
g1
g23
sg3
I01
sg10
L2L
sg4
V__dir__() -> list\u000adefault dir() implementation
p450
sa(dp451
g1
g14
sg3
I01
sg10
L5L
sa(dp452
g1
g27
sg3
I01
sg10
L5L
sa(dp453
g1
g29
sg3
I01
sg10
L2L
sg4
Vdefault object formatter
p454
sa(dp455
g1
g32
sg3
I01
sg10
L5L
sa(dp456
g1
g34
sg3
I01
sg10
L5L
sa(dp457
g1
V__getinitargs__
p458
sg3
I01
sg10
L2L
sg4
Vpickle support
p459
sa(dp460
g1
g36
sg3
I01
sg10
L5L
sa(dp461
g1
g38
sg3
I01
sg10
L5L
sa(dp462
g1
g40
sg3
I01
sg10
L5L
sa(dp463
g1
g42
sg3
I01
sg10
L2L
sg4
VThis method is called when a class is subclassed.\u000a\u000aThe default implementation does nothing. It may be\u000aoverridden to extend subclasses.\u000a
p464
sa(dp465
g1
g45
sg3
I01
sg10
L5L
sa(dp466
g1
g47
sg3
I01
sg10
L5L
sa(dp467
g1
g51
sg3
I01
sg10
L5L
sa(dp468
g1
g53
sg3
I01
sg10
L2L
sg4
VCreate and return a new object.  See help(type) for accurate signature.
p469
sa(dp470
g1
g56
sg3
I01
sg10
L2L
sg4
V-> (cls, state)
p471
sa(dp472
g1
g59
sg3
I01
sg10
L2L
sg4
Vhelper for pickle
p473
sa(dp474
g1
g62
sg3
I01
sg10
L5L
sa(dp475
g1
g64
sg3
I01
sg10
L5L
sa(dp476
g1
g66
sg3
I01
sg10
L2L
sg4
V__sizeof__() -> int\u000asize of object in memory, in bytes
p477
sa(dp478
g1
g69
sg3
I01
sg10
L5L
sa(dp479
g1
g71
sg3
I01
sg10
L2L
sg4
VAbstract classes can override this to customize issubclass().\u000a\u000aThis is invoked early on by abc.ABCMeta.__subclasscheck__().\u000aIt should return True, False or NotImplemented.  If it returns\u000aNotImplemented, the normal algorithm is used.  Otherwise, it\u000aoverrides the normal algorithm (and the outcome is cached).\u000a
p480
sa(dp481
g1
g239
sg3
I01
sg10
L2L
sg4
VReturn None.
p482
sa(dp483
g1
Vfromutc
p484
sg3
I01
sg10
L2L
sg4
Vdatetime in UTC -> datetime in local time.
p485
sa(dp486
g1
g162
sg3
I01
sg10
L5L
sa(dp487
g1
g164
sg3
I01
sg10
L5L
sa(dp488
g1
g293
sg3
I01
sg10
L2L
sg4
VIf name is specified when timezone is created, returns the name.  Otherwise returns offset as 'UTC(+|-)HH:MM'.
p489
sa(dp490
g1
Vutc
p491
sg3
I01
sg10
L5L
sa(dp492
g1
g302
sg3
I01
sg10
L2L
sg4
VReturn fixed offset.
p493
sasg4
VFixed offset from UTC implementation of tzinfo.
p494
sa(dp495
g1
g291
sg3
I01
sg10
L3L
sg6
(lp496
(dp497
g1
g19
sg3
I01
sg10
L5L
sa(dp498
g1
g23
sg3
I01
sg10
L2L
sg4
V__dir__() -> list\u000adefault dir() implementation
p499
sa(dp500
g1
g14
sg3
I01
sg10
L5L
sa(dp501
g1
g27
sg3
I01
sg10
L5L
sa(dp502
g1
g29
sg3
I01
sg10
L2L
sg4
Vdefault object formatter
p503
sa(dp504
g1
g32
sg3
I01
sg10
L5L
sa(dp505
g1
g34
sg3
I01
sg10
L5L
sa(dp506
g1
g36
sg3
I01
sg10
L5L
sa(dp507
g1
g38
sg3
I01
sg10
L5L
sa(dp508
g1
g40
sg3
I01
sg10
L5L
sa(dp509
g1
g42
sg3
I01
sg10
L2L
sg4
VThis method is called when a class is subclassed.\u000a\u000aThe default implementation does nothing. It may be\u000aoverridden to extend subclasses.\u000a
p510
sa(dp511
g1
g45
sg3
I01
sg10
L5L
sa(dp512
g1
g47
sg3
I01
sg10
L5L
sa(dp513
g1
g51
sg3
I01
sg10
L5L
sa(dp514
g1
g53
sg3
I01
sg10
L2L
sg4
VCreate and return a new object.  See help(type) for accurate signature.
p515
sa(dp516
g1
g56
sg3
I01
sg10
L2L
sg4
V-> (cls, state)
p517
sa(dp518
g1
g59
sg3
I01
sg10
L2L
sg4
Vhelper for pickle
p519
sa(dp520
g1
g62
sg3
I01
sg10
L5L
sa(dp521
g1
g64
sg3
I01
sg10
L5L
sa(dp522
g1
g66
sg3
I01
sg10
L2L
sg4
V__sizeof__() -> int\u000asize of object in memory, in bytes
p523
sa(dp524
g1
g69
sg3
I01
sg10
L5L
sa(dp525
g1
g71
sg3
I01
sg10
L2L
sg4
VAbstract classes can override this to customize issubclass().\u000a\u000aThis is invoked early on by abc.ABCMeta.__subclasscheck__().\u000aIt should return True, False or NotImplemented.  If it returns\u000aNotImplemented, the normal algorithm is used.  Otherwise, it\u000aoverrides the normal algorithm (and the outcome is cached).\u000a
p526
sa(dp527
g1
g239
sg3
I01
sg10
L2L
sg4
Vdatetime -> DST offset in minutes east of UTC.
p528
sa(dp529
g1
g484
sg3
I01
sg10
L2L
sg4
Vdatetime in UTC -> datetime in local time.
p530
sa(dp531
g1
g293
sg3
I01
sg10
L2L
sg4
Vdatetime -> string name of time zone.
p532
sa(dp533
g1
g302
sg3
I01
sg10
L2L
sg4
Vdatetime -> timedelta showing offset from UTC, negative values indicating West of UTC
p534
sasg4
VAbstract base class for time zone info objects.
p535
sasg10
L1L
s.