(dp0
Vname
p1
V_functools
p2
sVis_builtin
p3
I01
sVdoc
p4
VTools that operate on functions.
p5
sVchilds
p6
(lp7
(dp8
g1
V__doc__
p9
sg3
I01
sVtype
p10
L5L
sa(dp11
g1
V__loader__
p12
sg3
I01
sg10
L3L
sg6
(lp13
(dp14
g1
V__delattr__
p15
sg3
I01
sg10
L5L
sa(dp16
g1
V__dict__
p17
sg3
I01
sg10
L5L
sa(dp18
g1
V__dir__
p19
sg3
I01
sg10
L2L
sg4
V__dir__() -> list\u000adefault dir() implementation
p20
sa(dp21
g1
g9
sg3
I01
sg10
L5L
sa(dp22
g1
V__eq__
p23
sg3
I01
sg10
L5L
sa(dp24
g1
V__format__
p25
sg3
I01
sg10
L2L
sg4
Vdefault object formatter
p26
sa(dp27
g1
V__ge__
p28
sg3
I01
sg10
L5L
sa(dp29
g1
V__getattribute__
p30
sg3
I01
sg10
L5L
sa(dp31
g1
V__gt__
p32
sg3
I01
sg10
L5L
sa(dp33
g1
V__hash__
p34
sg3
I01
sg10
L5L
sa(dp35
g1
V__init__
p36
sg3
I01
sg10
L5L
sa(dp37
g1
V__init_subclass__
p38
sg3
I01
sg10
L2L
sg4
VThis method is called when a class is subclassed.\u000a\u000aThe default implementation does nothing. It may be\u000aoverridden to extend subclasses.\u000a
p39
sa(dp40
g1
V__le__
p41
sg3
I01
sg10
L5L
sa(dp42
g1
V__lt__
p43
sg3
I01
sg10
L5L
sa(dp44
g1
V__module__
p45
sg3
I01
sg10
L5L
sa(dp46
g1
V__ne__
p47
sg3
I01
sg10
L5L
sa(dp48
g1
V__new__
p49
sg3
I01
sg10
L2L
sg4
VCreate and return a new object.  See help(type) for accurate signature.
p50
sa(dp51
g1
V__reduce__
p52
sg3
I01
sg10
L2L
sg4
Vhelper for pickle
p53
sa(dp54
g1
V__reduce_ex__
p55
sg3
I01
sg10
L2L
sg4
Vhelper for pickle
p56
sa(dp57
g1
V__repr__
p58
sg3
I01
sg10
L5L
sa(dp59
g1
V__setattr__
p60
sg3
I01
sg10
L5L
sa(dp61
g1
V__sizeof__
p62
sg3
I01
sg10
L2L
sg4
V__sizeof__() -> int\u000asize of object in memory, in bytes
p63
sa(dp64
g1
V__str__
p65
sg3
I01
sg10
L5L
sa(dp66
g1
V__subclasshook__
p67
sg3
I01
sg10
L2L
sg4
VAbstract classes can override this to customize issubclass().\u000a\u000aThis is invoked early on by abc.ABCMeta.__subclasscheck__().\u000aIt should return True, False or NotImplemented.  If it returns\u000aNotImplemented, the normal algorithm is used.  Otherwise, it\u000aoverrides the normal algorithm (and the outcome is cached).\u000a
p68
sa(dp69
g1
V__weakref__
p70
sg3
I01
sg10
L5L
sa(dp71
g1
Vcreate_module
p72
sg3
I01
sg10
L5L
sa(dp73
g1
Vexec_module
p74
sg3
I01
sg10
L5L
sa(dp75
g1
Vfind_module
p76
sg3
I01
sg10
L5L
sa(dp77
g1
Vfind_spec
p78
sg3
I01
sg10
L5L
sa(dp79
g1
Vget_code
p80
sg3
I01
sg10
L5L
sa(dp81
g1
Vget_source
p82
sg3
I01
sg10
L5L
sa(dp83
g1
Vis_package
p84
sg3
I01
sg10
L5L
sa(dp85
g1
Vload_module
p86
sg3
I01
sg10
L5L
sa(dp87
g1
Vmodule_repr
p88
sg3
I01
sg10
L5L
sasg4
VMeta path import for built-in modules.\u000a\u000a    All methods are either class or static methods to avoid the need to\u000a    instantiate the class.\u000a\u000a    
p89
sa(dp90
g1
V__name__
p91
sg3
I01
sg10
L5L
sa(dp92
g1
V__package__
p93
sg3
I01
sg10
L5L
sa(dp94
g1
V__spec__
p95
sg3
I01
sg10
L5L
sa(dp96
g1
V_lru_cache_wrapper
p97
sg3
I01
sg10
L3L
sg6
(lp98
(dp99
g1
V__call__
p100
sg3
I01
sg10
L5L
sa(dp101
g1
V__copy__
p102
sg3
I01
sg10
L2L
sg4
Nsa(dp103
g1
V__deepcopy__
p104
sg3
I01
sg10
L2L
sg4
Nsa(dp105
g1
g15
sg3
I01
sg10
L5L
sa(dp106
g1
g17
sg3
I01
sg10
L5L
sa(dp107
g1
g19
sg3
I01
sg10
L2L
sg4
V__dir__() -> list\u000adefault dir() implementation
p108
sa(dp109
g1
g9
sg3
I01
sg10
L5L
sa(dp110
g1
g23
sg3
I01
sg10
L5L
sa(dp111
g1
g25
sg3
I01
sg10
L2L
sg4
Vdefault object formatter
p112
sa(dp113
g1
g28
sg3
I01
sg10
L5L
sa(dp114
g1
V__get__
p115
sg3
I01
sg10
L5L
sa(dp116
g1
g30
sg3
I01
sg10
L5L
sa(dp117
g1
g32
sg3
I01
sg10
L5L
sa(dp118
g1
g34
sg3
I01
sg10
L5L
sa(dp119
g1
g36
sg3
I01
sg10
L5L
sa(dp120
g1
g38
sg3
I01
sg10
L2L
sg4
VThis method is called when a class is subclassed.\u000a\u000aThe default implementation does nothing. It may be\u000aoverridden to extend subclasses.\u000a
p121
sa(dp122
g1
g41
sg3
I01
sg10
L5L
sa(dp123
g1
g43
sg3
I01
sg10
L5L
sa(dp124
g1
g47
sg3
I01
sg10
L5L
sa(dp125
g1
g49
sg3
I01
sg10
L2L
sg4
VCreate and return a new object.  See help(type) for accurate signature.
p126
sa(dp127
g1
g52
sg3
I01
sg10
L2L
sg4
Nsa(dp128
g1
g55
sg3
I01
sg10
L2L
sg4
Vhelper for pickle
p129
sa(dp130
g1
g58
sg3
I01
sg10
L5L
sa(dp131
g1
g60
sg3
I01
sg10
L5L
sa(dp132
g1
g62
sg3
I01
sg10
L2L
sg4
V__sizeof__() -> int\u000asize of object in memory, in bytes
p133
sa(dp134
g1
g65
sg3
I01
sg10
L5L
sa(dp135
g1
g67
sg3
I01
sg10
L2L
sg4
VAbstract classes can override this to customize issubclass().\u000a\u000aThis is invoked early on by abc.ABCMeta.__subclasscheck__().\u000aIt should return True, False or NotImplemented.  If it returns\u000aNotImplemented, the normal algorithm is used.  Otherwise, it\u000aoverrides the normal algorithm (and the outcome is cached).\u000a
p136
sa(dp137
g1
Vcache_clear
p138
sg3
I01
sg10
L2L
sg4
Nsa(dp139
g1
Vcache_info
p140
sg3
I01
sg10
L2L
sg4
Nsasg4
VCreate a cached callable that wraps another function.\u000a\u000auser_function:      the function being cached\u000a\u000amaxsize:  0         for no caching\u000a          None      for unlimited cache size\u000a          n         for a bounded cache\u000a\u000atyped:    False     cache f(3) and f(3.0) as identical calls\u000a          True      cache f(3) and f(3.0) as distinct calls\u000a\u000acache_info_type:    namedtuple class with the fields:\u000a                        hits misses currsize maxsize\u000a
p141
sa(dp142
g1
Vcmp_to_key
p143
sg3
I01
sg10
L2L
sg4
VConvert a cmp= function into a key= function.
p144
sa(dp145
g1
Vpartial
p146
sg3
I01
sg10
L3L
sg6
(lp147
(dp148
g1
g100
sg3
I01
sg10
L5L
sa(dp149
g1
g15
sg3
I01
sg10
L5L
sa(dp150
g1
g17
sg3
I01
sg10
L5L
sa(dp151
g1
g19
sg3
I01
sg10
L2L
sg4
V__dir__() -> list\u000adefault dir() implementation
p152
sa(dp153
g1
g9
sg3
I01
sg10
L5L
sa(dp154
g1
g23
sg3
I01
sg10
L5L
sa(dp155
g1
g25
sg3
I01
sg10
L2L
sg4
Vdefault object formatter
p156
sa(dp157
g1
g28
sg3
I01
sg10
L5L
sa(dp158
g1
g30
sg3
I01
sg10
L5L
sa(dp159
g1
g32
sg3
I01
sg10
L5L
sa(dp160
g1
g34
sg3
I01
sg10
L5L
sa(dp161
g1
g36
sg3
I01
sg10
L5L
sa(dp162
g1
g38
sg3
I01
sg10
L2L
sg4
VThis method is called when a class is subclassed.\u000a\u000aThe default implementation does nothing. It may be\u000aoverridden to extend subclasses.\u000a
p163
sa(dp164
g1
g41
sg3
I01
sg10
L5L
sa(dp165
g1
g43
sg3
I01
sg10
L5L
sa(dp166
g1
g47
sg3
I01
sg10
L5L
sa(dp167
g1
g49
sg3
I01
sg10
L2L
sg4
VCreate and return a new object.  See help(type) for accurate signature.
p168
sa(dp169
g1
g52
sg3
I01
sg10
L2L
sg4
Nsa(dp170
g1
g55
sg3
I01
sg10
L2L
sg4
Vhelper for pickle
p171
sa(dp172
g1
g58
sg3
I01
sg10
L5L
sa(dp173
g1
g60
sg3
I01
sg10
L5L
sa(dp174
g1
V__setstate__
p175
sg3
I01
sg10
L2L
sg4
Nsa(dp176
g1
g62
sg3
I01
sg10
L2L
sg4
V__sizeof__() -> int\u000asize of object in memory, in bytes
p177
sa(dp178
g1
g65
sg3
I01
sg10
L5L
sa(dp179
g1
g67
sg3
I01
sg10
L2L
sg4
VAbstract classes can override this to customize issubclass().\u000a\u000aThis is invoked early on by abc.ABCMeta.__subclasscheck__().\u000aIt should return True, False or NotImplemented.  If it returns\u000aNotImplemented, the normal algorithm is used.  Otherwise, it\u000aoverrides the normal algorithm (and the outcome is cached).\u000a
p180
sa(dp181
g1
Vargs
p182
sg3
I01
sg10
L5L
sa(dp183
g1
Vfunc
p184
sg3
I01
sg10
L5L
sa(dp185
g1
Vkeywords
p186
sg3
I01
sg10
L5L
sasg4
Vpartial(func, *args, **keywords) - new function with partial application\u000a    of the given arguments and keywords.\u000a
p187
sa(dp188
g1
Vreduce
p189
sg3
I01
sg10
L2L
sg4
Vreduce(function, sequence[, initial]) -> value\u000a\u000aApply a function of two arguments cumulatively to the items of a sequence,\u000afrom left to right, so as to reduce the sequence to a single value.\u000aFor example, reduce(lambda x, y: x+y, [1, 2, 3, 4, 5]) calculates\u000a((((1+2)+3)+4)+5).  If initial is present, it is placed before the items\u000aof the sequence in the calculation, and serves as a default when the\u000asequence is empty.
p190
sasg10
L1L
s.