(dp0
Vname
p1
V_json
p2
sVis_builtin
p3
I01
sVdoc
p4
Vjson speedups\u000a
p5
sVchilds
p6
(lp7
(dp8
g1
V__doc__
p9
sg3
I01
sVtype
p10
L5L
sa(dp11
g1
V__loader__
p12
sg3
I01
sg10
L3L
sg6
(lp13
(dp14
g1
V__delattr__
p15
sg3
I01
sg10
L5L
sa(dp16
g1
V__dict__
p17
sg3
I01
sg10
L5L
sa(dp18
g1
V__dir__
p19
sg3
I01
sg10
L2L
sg4
V__dir__() -> list\u000adefault dir() implementation
p20
sa(dp21
g1
g9
sg3
I01
sg10
L5L
sa(dp22
g1
V__eq__
p23
sg3
I01
sg10
L5L
sa(dp24
g1
V__format__
p25
sg3
I01
sg10
L2L
sg4
Vdefault object formatter
p26
sa(dp27
g1
V__ge__
p28
sg3
I01
sg10
L5L
sa(dp29
g1
V__getattribute__
p30
sg3
I01
sg10
L5L
sa(dp31
g1
V__gt__
p32
sg3
I01
sg10
L5L
sa(dp33
g1
V__hash__
p34
sg3
I01
sg10
L5L
sa(dp35
g1
V__init__
p36
sg3
I01
sg10
L5L
sa(dp37
g1
V__init_subclass__
p38
sg3
I01
sg10
L2L
sg4
VThis method is called when a class is subclassed.\u000a\u000aThe default implementation does nothing. It may be\u000aoverridden to extend subclasses.\u000a
p39
sa(dp40
g1
V__le__
p41
sg3
I01
sg10
L5L
sa(dp42
g1
V__lt__
p43
sg3
I01
sg10
L5L
sa(dp44
g1
V__module__
p45
sg3
I01
sg10
L5L
sa(dp46
g1
V__ne__
p47
sg3
I01
sg10
L5L
sa(dp48
g1
V__new__
p49
sg3
I01
sg10
L2L
sg4
VCreate and return a new object.  See help(type) for accurate signature.
p50
sa(dp51
g1
V__reduce__
p52
sg3
I01
sg10
L2L
sg4
Vhelper for pickle
p53
sa(dp54
g1
V__reduce_ex__
p55
sg3
I01
sg10
L2L
sg4
Vhelper for pickle
p56
sa(dp57
g1
V__repr__
p58
sg3
I01
sg10
L5L
sa(dp59
g1
V__setattr__
p60
sg3
I01
sg10
L5L
sa(dp61
g1
V__sizeof__
p62
sg3
I01
sg10
L2L
sg4
V__sizeof__() -> int\u000asize of object in memory, in bytes
p63
sa(dp64
g1
V__str__
p65
sg3
I01
sg10
L5L
sa(dp66
g1
V__subclasshook__
p67
sg3
I01
sg10
L2L
sg4
VAbstract classes can override this to customize issubclass().\u000a\u000aThis is invoked early on by abc.ABCMeta.__subclasscheck__().\u000aIt should return True, False or NotImplemented.  If it returns\u000aNotImplemented, the normal algorithm is used.  Otherwise, it\u000aoverrides the normal algorithm (and the outcome is cached).\u000a
p68
sa(dp69
g1
V__weakref__
p70
sg3
I01
sg10
L5L
sa(dp71
g1
Vcreate_module
p72
sg3
I01
sg10
L5L
sa(dp73
g1
Vexec_module
p74
sg3
I01
sg10
L5L
sa(dp75
g1
Vfind_module
p76
sg3
I01
sg10
L5L
sa(dp77
g1
Vfind_spec
p78
sg3
I01
sg10
L5L
sa(dp79
g1
Vget_code
p80
sg3
I01
sg10
L5L
sa(dp81
g1
Vget_source
p82
sg3
I01
sg10
L5L
sa(dp83
g1
Vis_package
p84
sg3
I01
sg10
L5L
sa(dp85
g1
Vload_module
p86
sg3
I01
sg10
L5L
sa(dp87
g1
Vmodule_repr
p88
sg3
I01
sg10
L5L
sasg4
VMeta path import for built-in modules.\u000a\u000a    All methods are either class or static methods to avoid the need to\u000a    instantiate the class.\u000a\u000a    
p89
sa(dp90
g1
V__name__
p91
sg3
I01
sg10
L5L
sa(dp92
g1
V__package__
p93
sg3
I01
sg10
L5L
sa(dp94
g1
V__spec__
p95
sg3
I01
sg10
L5L
sa(dp96
g1
Vencode_basestring
p97
sg3
I01
sg10
L2L
sg4
Vencode_basestring(string) -> string\u000a\u000aReturn a JSON representation of a Python string
p98
sa(dp99
g1
Vencode_basestring_ascii
p100
sg3
I01
sg10
L2L
sg4
Vencode_basestring_ascii(string) -> string\u000a\u000aReturn an ASCII-only JSON representation of a Python string
p101
sa(dp102
g1
Vmake_encoder
p103
sg3
I01
sg10
L3L
sg6
(lp104
(dp105
g1
V__call__
p106
sg3
I01
sg10
L5L
sa(dp107
g1
g15
sg3
I01
sg10
L5L
sa(dp108
g1
g19
sg3
I01
sg10
L2L
sg4
V__dir__() -> list\u000adefault dir() implementation
p109
sa(dp110
g1
g9
sg3
I01
sg10
L5L
sa(dp111
g1
g23
sg3
I01
sg10
L5L
sa(dp112
g1
g25
sg3
I01
sg10
L2L
sg4
Vdefault object formatter
p113
sa(dp114
g1
g28
sg3
I01
sg10
L5L
sa(dp115
g1
g30
sg3
I01
sg10
L5L
sa(dp116
g1
g32
sg3
I01
sg10
L5L
sa(dp117
g1
g34
sg3
I01
sg10
L5L
sa(dp118
g1
g36
sg3
I01
sg10
L5L
sa(dp119
g1
g38
sg3
I01
sg10
L2L
sg4
VThis method is called when a class is subclassed.\u000a\u000aThe default implementation does nothing. It may be\u000aoverridden to extend subclasses.\u000a
p120
sa(dp121
g1
g41
sg3
I01
sg10
L5L
sa(dp122
g1
g43
sg3
I01
sg10
L5L
sa(dp123
g1
g47
sg3
I01
sg10
L5L
sa(dp124
g1
g49
sg3
I01
sg10
L2L
sg4
VCreate and return a new object.  See help(type) for accurate signature.
p125
sa(dp126
g1
g52
sg3
I01
sg10
L2L
sg4
Vhelper for pickle
p127
sa(dp128
g1
g55
sg3
I01
sg10
L2L
sg4
Vhelper for pickle
p129
sa(dp130
g1
g58
sg3
I01
sg10
L5L
sa(dp131
g1
g60
sg3
I01
sg10
L5L
sa(dp132
g1
g62
sg3
I01
sg10
L2L
sg4
V__sizeof__() -> int\u000asize of object in memory, in bytes
p133
sa(dp134
g1
g65
sg3
I01
sg10
L5L
sa(dp135
g1
g67
sg3
I01
sg10
L2L
sg4
VAbstract classes can override this to customize issubclass().\u000a\u000aThis is invoked early on by abc.ABCMeta.__subclasscheck__().\u000aIt should return True, False or NotImplemented.  If it returns\u000aNotImplemented, the normal algorithm is used.  Otherwise, it\u000aoverrides the normal algorithm (and the outcome is cached).\u000a
p136
sa(dp137
g1
Vdefault
p138
sg3
I01
sg10
L5L
sa(dp139
g1
Vencoder
p140
sg3
I01
sg10
L5L
sa(dp141
g1
Vindent
p142
sg3
I01
sg10
L5L
sa(dp143
g1
Vitem_separator
p144
sg3
I01
sg10
L5L
sa(dp145
g1
Vkey_separator
p146
sg3
I01
sg10
L5L
sa(dp147
g1
Vmarkers
p148
sg3
I01
sg10
L5L
sa(dp149
g1
Vskipkeys
p150
sg3
I01
sg10
L5L
sa(dp151
g1
Vsort_keys
p152
sg3
I01
sg10
L5L
sasg4
V_iterencode(obj, _current_indent_level) -> iterable
p153
sa(dp154
g1
Vmake_scanner
p155
sg3
I01
sg10
L3L
sg6
(lp156
(dp157
g1
g106
sg3
I01
sg10
L5L
sa(dp158
g1
g15
sg3
I01
sg10
L5L
sa(dp159
g1
g19
sg3
I01
sg10
L2L
sg4
V__dir__() -> list\u000adefault dir() implementation
p160
sa(dp161
g1
g9
sg3
I01
sg10
L5L
sa(dp162
g1
g23
sg3
I01
sg10
L5L
sa(dp163
g1
g25
sg3
I01
sg10
L2L
sg4
Vdefault object formatter
p164
sa(dp165
g1
g28
sg3
I01
sg10
L5L
sa(dp166
g1
g30
sg3
I01
sg10
L5L
sa(dp167
g1
g32
sg3
I01
sg10
L5L
sa(dp168
g1
g34
sg3
I01
sg10
L5L
sa(dp169
g1
g36
sg3
I01
sg10
L5L
sa(dp170
g1
g38
sg3
I01
sg10
L2L
sg4
VThis method is called when a class is subclassed.\u000a\u000aThe default implementation does nothing. It may be\u000aoverridden to extend subclasses.\u000a
p171
sa(dp172
g1
g41
sg3
I01
sg10
L5L
sa(dp173
g1
g43
sg3
I01
sg10
L5L
sa(dp174
g1
g47
sg3
I01
sg10
L5L
sa(dp175
g1
g49
sg3
I01
sg10
L2L
sg4
VCreate and return a new object.  See help(type) for accurate signature.
p176
sa(dp177
g1
g52
sg3
I01
sg10
L2L
sg4
Vhelper for pickle
p178
sa(dp179
g1
g55
sg3
I01
sg10
L2L
sg4
Vhelper for pickle
p180
sa(dp181
g1
g58
sg3
I01
sg10
L5L
sa(dp182
g1
g60
sg3
I01
sg10
L5L
sa(dp183
g1
g62
sg3
I01
sg10
L2L
sg4
V__sizeof__() -> int\u000asize of object in memory, in bytes
p184
sa(dp185
g1
g65
sg3
I01
sg10
L5L
sa(dp186
g1
g67
sg3
I01
sg10
L2L
sg4
VAbstract classes can override this to customize issubclass().\u000a\u000aThis is invoked early on by abc.ABCMeta.__subclasscheck__().\u000aIt should return True, False or NotImplemented.  If it returns\u000aNotImplemented, the normal algorithm is used.  Otherwise, it\u000aoverrides the normal algorithm (and the outcome is cached).\u000a
p187
sa(dp188
g1
Vobject_hook
p189
sg3
I01
sg10
L5L
sa(dp190
g1
Vobject_pairs_hook
p191
sg3
I01
sg10
L5L
sa(dp192
g1
Vparse_constant
p193
sg3
I01
sg10
L5L
sa(dp194
g1
Vparse_float
p195
sg3
I01
sg10
L5L
sa(dp196
g1
Vparse_int
p197
sg3
I01
sg10
L5L
sa(dp198
g1
Vstrict
p199
sg3
I01
sg10
L5L
sasg4
VJSON scanner object
p200
sa(dp201
g1
Vscanstring
p202
sg3
I01
sg10
L2L
sg4
Vscanstring(string, end, strict=True) -> (string, end)\u000a\u000aScan the string s for a JSON string. End is the index of the\u000acharacter in s after the quote that started the JSON string.\u000aUnescapes all valid JSON string escape sequences and raises ValueError\u000aon attempt to decode an invalid string. If strict is False then literal\u000acontrol characters are allowed in the string.\u000a\u000aReturns a tuple of the decoded string and the index of the character in s\u000aafter the end quote.
p203
sasg10
L1L
s.