(dp0
Vname
p1
V_locale
p2
sVis_builtin
p3
I01
sVdoc
p4
VSupport for POSIX locales.
p5
sVchilds
p6
(lp7
(dp8
g1
VCHAR_MAX
p9
sg3
I01
sVtype
p10
L5L
sa(dp11
g1
VError
p12
sg3
I01
sg10
L3L
sg6
(lp13
(dp14
g1
V__cause__
p15
sg3
I01
sg10
L5L
sa(dp16
g1
V__context__
p17
sg3
I01
sg10
L5L
sa(dp18
g1
V__delattr__
p19
sg3
I01
sg10
L5L
sa(dp20
g1
V__dict__
p21
sg3
I01
sg10
L5L
sa(dp22
g1
V__dir__
p23
sg3
I01
sg10
L2L
sg4
V__dir__() -> list\u000adefault dir() implementation
p24
sa(dp25
g1
V__doc__
p26
sg3
I01
sg10
L5L
sa(dp27
g1
V__eq__
p28
sg3
I01
sg10
L5L
sa(dp29
g1
V__format__
p30
sg3
I01
sg10
L2L
sg4
Vdefault object formatter
p31
sa(dp32
g1
V__ge__
p33
sg3
I01
sg10
L5L
sa(dp34
g1
V__getattribute__
p35
sg3
I01
sg10
L5L
sa(dp36
g1
V__gt__
p37
sg3
I01
sg10
L5L
sa(dp38
g1
V__hash__
p39
sg3
I01
sg10
L5L
sa(dp40
g1
V__init__
p41
sg3
I01
sg10
L5L
sa(dp42
g1
V__init_subclass__
p43
sg3
I01
sg10
L2L
sg4
VThis method is called when a class is subclassed.\u000a\u000aThe default implementation does nothing. It may be\u000aoverridden to extend subclasses.\u000a
p44
sa(dp45
g1
V__le__
p46
sg3
I01
sg10
L5L
sa(dp47
g1
V__lt__
p48
sg3
I01
sg10
L5L
sa(dp49
g1
V__module__
p50
sg3
I01
sg10
L5L
sa(dp51
g1
V__ne__
p52
sg3
I01
sg10
L5L
sa(dp53
g1
V__new__
p54
sg3
I01
sg10
L2L
sg4
VCreate and return a new object.  See help(type) for accurate signature.
p55
sa(dp56
g1
V__reduce__
p57
sg3
I01
sg10
L2L
sg4
Nsa(dp58
g1
V__reduce_ex__
p59
sg3
I01
sg10
L2L
sg4
Vhelper for pickle
p60
sa(dp61
g1
V__repr__
p62
sg3
I01
sg10
L5L
sa(dp63
g1
V__setattr__
p64
sg3
I01
sg10
L5L
sa(dp65
g1
V__setstate__
p66
sg3
I01
sg10
L2L
sg4
Nsa(dp67
g1
V__sizeof__
p68
sg3
I01
sg10
L2L
sg4
V__sizeof__() -> int\u000asize of object in memory, in bytes
p69
sa(dp70
g1
V__str__
p71
sg3
I01
sg10
L5L
sa(dp72
g1
V__subclasshook__
p73
sg3
I01
sg10
L2L
sg4
VAbstract classes can override this to customize issubclass().\u000a\u000aThis is invoked early on by abc.ABCMeta.__subclasscheck__().\u000aIt should return True, False or NotImplemented.  If it returns\u000aNotImplemented, the normal algorithm is used.  Otherwise, it\u000aoverrides the normal algorithm (and the outcome is cached).\u000a
p74
sa(dp75
g1
V__suppress_context__
p76
sg3
I01
sg10
L5L
sa(dp77
g1
V__traceback__
p78
sg3
I01
sg10
L5L
sa(dp79
g1
V__weakref__
p80
sg3
I01
sg10
L5L
sa(dp81
g1
Vargs
p82
sg3
I01
sg10
L5L
sa(dp83
g1
Vwith_traceback
p84
sg3
I01
sg10
L2L
sg4
VException.with_traceback(tb) --\u000a    set self.__traceback__ to tb and return self.
p85
sasg4
Nsa(dp86
g1
VLC_ALL
p87
sg3
I01
sg10
L5L
sa(dp88
g1
VLC_COLLATE
p89
sg3
I01
sg10
L5L
sa(dp90
g1
VLC_CTYPE
p91
sg3
I01
sg10
L5L
sa(dp92
g1
VLC_MONETARY
p93
sg3
I01
sg10
L5L
sa(dp94
g1
VLC_NUMERIC
p95
sg3
I01
sg10
L5L
sa(dp96
g1
VLC_TIME
p97
sg3
I01
sg10
L5L
sa(dp98
g1
g26
sg3
I01
sg10
L5L
sa(dp99
g1
V__loader__
p100
sg3
I01
sg10
L3L
sg6
(lp101
(dp102
g1
g19
sg3
I01
sg10
L5L
sa(dp103
g1
g21
sg3
I01
sg10
L5L
sa(dp104
g1
g23
sg3
I01
sg10
L2L
sg4
V__dir__() -> list\u000adefault dir() implementation
p105
sa(dp106
g1
g26
sg3
I01
sg10
L5L
sa(dp107
g1
g28
sg3
I01
sg10
L5L
sa(dp108
g1
g30
sg3
I01
sg10
L2L
sg4
Vdefault object formatter
p109
sa(dp110
g1
g33
sg3
I01
sg10
L5L
sa(dp111
g1
g35
sg3
I01
sg10
L5L
sa(dp112
g1
g37
sg3
I01
sg10
L5L
sa(dp113
g1
g39
sg3
I01
sg10
L5L
sa(dp114
g1
g41
sg3
I01
sg10
L5L
sa(dp115
g1
g43
sg3
I01
sg10
L2L
sg4
VThis method is called when a class is subclassed.\u000a\u000aThe default implementation does nothing. It may be\u000aoverridden to extend subclasses.\u000a
p116
sa(dp117
g1
g46
sg3
I01
sg10
L5L
sa(dp118
g1
g48
sg3
I01
sg10
L5L
sa(dp119
g1
g50
sg3
I01
sg10
L5L
sa(dp120
g1
g52
sg3
I01
sg10
L5L
sa(dp121
g1
g54
sg3
I01
sg10
L2L
sg4
VCreate and return a new object.  See help(type) for accurate signature.
p122
sa(dp123
g1
g57
sg3
I01
sg10
L2L
sg4
Vhelper for pickle
p124
sa(dp125
g1
g59
sg3
I01
sg10
L2L
sg4
Vhelper for pickle
p126
sa(dp127
g1
g62
sg3
I01
sg10
L5L
sa(dp128
g1
g64
sg3
I01
sg10
L5L
sa(dp129
g1
g68
sg3
I01
sg10
L2L
sg4
V__sizeof__() -> int\u000asize of object in memory, in bytes
p130
sa(dp131
g1
g71
sg3
I01
sg10
L5L
sa(dp132
g1
g73
sg3
I01
sg10
L2L
sg4
VAbstract classes can override this to customize issubclass().\u000a\u000aThis is invoked early on by abc.ABCMeta.__subclasscheck__().\u000aIt should return True, False or NotImplemented.  If it returns\u000aNotImplemented, the normal algorithm is used.  Otherwise, it\u000aoverrides the normal algorithm (and the outcome is cached).\u000a
p133
sa(dp134
g1
g80
sg3
I01
sg10
L5L
sa(dp135
g1
Vcreate_module
p136
sg3
I01
sg10
L5L
sa(dp137
g1
Vexec_module
p138
sg3
I01
sg10
L5L
sa(dp139
g1
Vfind_module
p140
sg3
I01
sg10
L5L
sa(dp141
g1
Vfind_spec
p142
sg3
I01
sg10
L5L
sa(dp143
g1
Vget_code
p144
sg3
I01
sg10
L5L
sa(dp145
g1
Vget_source
p146
sg3
I01
sg10
L5L
sa(dp147
g1
Vis_package
p148
sg3
I01
sg10
L5L
sa(dp149
g1
Vload_module
p150
sg3
I01
sg10
L5L
sa(dp151
g1
Vmodule_repr
p152
sg3
I01
sg10
L5L
sasg4
VMeta path import for built-in modules.\u000a\u000a    All methods are either class or static methods to avoid the need to\u000a    instantiate the class.\u000a\u000a    
p153
sa(dp154
g1
V__name__
p155
sg3
I01
sg10
L5L
sa(dp156
g1
V__package__
p157
sg3
I01
sg10
L5L
sa(dp158
g1
V__spec__
p159
sg3
I01
sg10
L5L
sa(dp160
g1
V_getdefaultlocale
p161
sg3
I01
sg10
L2L
sg4
Nsa(dp162
g1
Vlocaleconv
p163
sg3
I01
sg10
L2L
sg4
V() -> dict. Returns numeric and monetary locale-specific parameters.
p164
sa(dp165
g1
Vsetlocale
p166
sg3
I01
sg10
L2L
sg4
V(integer,string=None) -> string. Activates/queries locale processing.
p167
sa(dp168
g1
Vstrcoll
p169
sg3
I01
sg10
L2L
sg4
Vstring,string -> int. Compares two strings according to the locale.
p170
sa(dp171
g1
Vstrxfrm
p172
sg3
I01
sg10
L2L
sg4
Vstrxfrm(string) -> string.\u000a\u000aReturn a string that can be used as a key for locale-aware comparisons.
p173
sasg10
L1L
s.