(dp0
Vname
p1
V_lsprof
p2
sVis_builtin
p3
I01
sVdoc
p4
VFast profiler
p5
sVchilds
p6
(lp7
(dp8
g1
VProfiler
p9
sg3
I01
sVtype
p10
L3L
sg6
(lp11
(dp12
g1
V__delattr__
p13
sg3
I01
sg10
L5L
sa(dp14
g1
V__dir__
p15
sg3
I01
sg10
L2L
sg4
V__dir__() -> list\u000adefault dir() implementation
p16
sa(dp17
g1
V__doc__
p18
sg3
I01
sg10
L5L
sa(dp19
g1
V__eq__
p20
sg3
I01
sg10
L5L
sa(dp21
g1
V__format__
p22
sg3
I01
sg10
L2L
sg4
Vdefault object formatter
p23
sa(dp24
g1
V__ge__
p25
sg3
I01
sg10
L5L
sa(dp26
g1
V__getattribute__
p27
sg3
I01
sg10
L5L
sa(dp28
g1
V__gt__
p29
sg3
I01
sg10
L5L
sa(dp30
g1
V__hash__
p31
sg3
I01
sg10
L5L
sa(dp32
g1
V__init__
p33
sg3
I01
sg10
L5L
sa(dp34
g1
V__init_subclass__
p35
sg3
I01
sg10
L2L
sg4
VThis method is called when a class is subclassed.\u000a\u000aThe default implementation does nothing. It may be\u000aoverridden to extend subclasses.\u000a
p36
sa(dp37
g1
V__le__
p38
sg3
I01
sg10
L5L
sa(dp39
g1
V__lt__
p40
sg3
I01
sg10
L5L
sa(dp41
g1
V__ne__
p42
sg3
I01
sg10
L5L
sa(dp43
g1
V__new__
p44
sg3
I01
sg10
L2L
sg4
VCreate and return a new object.  See help(type) for accurate signature.
p45
sa(dp46
g1
V__reduce__
p47
sg3
I01
sg10
L2L
sg4
Vhelper for pickle
p48
sa(dp49
g1
V__reduce_ex__
p50
sg3
I01
sg10
L2L
sg4
Vhelper for pickle
p51
sa(dp52
g1
V__repr__
p53
sg3
I01
sg10
L5L
sa(dp54
g1
V__setattr__
p55
sg3
I01
sg10
L5L
sa(dp56
g1
V__sizeof__
p57
sg3
I01
sg10
L2L
sg4
V__sizeof__() -> int\u000asize of object in memory, in bytes
p58
sa(dp59
g1
V__str__
p60
sg3
I01
sg10
L5L
sa(dp61
g1
V__subclasshook__
p62
sg3
I01
sg10
L2L
sg4
VAbstract classes can override this to customize issubclass().\u000a\u000aThis is invoked early on by abc.ABCMeta.__subclasscheck__().\u000aIt should return True, False or NotImplemented.  If it returns\u000aNotImplemented, the normal algorithm is used.  Otherwise, it\u000aoverrides the normal algorithm (and the outcome is cached).\u000a
p63
sa(dp64
g1
Vclear
p65
sg3
I01
sg10
L2L
sg4
Vclear()\u000a\u000aClear all profiling information collected so far.\u000a
p66
sa(dp67
g1
Vdisable
p68
sg3
I01
sg10
L2L
sg4
Vdisable()\u000a\u000aStop collecting profiling information.\u000a
p69
sa(dp70
g1
Venable
p71
sg3
I01
sg10
L2L
sg4
Venable(subcalls=True, builtins=True)\u000a\u000aStart collecting profiling information.\u000aIf 'subcalls' is True, also records for each function\u000astatistics separated according to its current caller.\u000aIf 'builtins' is True, records the time spent in\u000abuilt-in functions separately from their caller.\u000a
p72
sa(dp73
g1
Vgetstats
p74
sg3
I01
sg10
L2L
sg4
Vgetstats() -> list of profiler_entry objects\u000a\u000aReturn all information collected by the profiler.\u000aEach profiler_entry is a tuple-like object with the\u000afollowing attributes:\u000a\u000a    code          code object\u000a    callcount     how many times this was called\u000a    reccallcount  how many times called recursively\u000a    totaltime     total time in this entry\u000a    inlinetime    inline time in this entry (not in subcalls)\u000a    calls         details of the calls\u000a\u000aThe calls attribute is either None or a list of\u000aprofiler_subentry objects:\u000a\u000a    code          called code object\u000a    callcount     how many times this is called\u000a    reccallcount  how many times this is called recursively\u000a    totaltime     total time spent in this call\u000a    inlinetime    inline time (not in further subcalls)\u000a
p75
sasg4
VProfiler(custom_timer=None, time_unit=None, subcalls=True, builtins=True)\u000a\u000a    Builds a profiler object using the specified timer function.\u000a    The default timer is a fast built-in one based on real time.\u000a    For custom timer functions returning integers, time_unit can\u000a    be a float specifying a scale (i.e. how long each integer unit\u000a    is, in seconds).\u000a
p76
sa(dp77
g1
g18
sg3
I01
sg10
L5L
sa(dp78
g1
V__loader__
p79
sg3
I01
sg10
L3L
sg6
(lp80
(dp81
g1
g13
sg3
I01
sg10
L5L
sa(dp82
g1
V__dict__
p83
sg3
I01
sg10
L5L
sa(dp84
g1
g15
sg3
I01
sg10
L2L
sg4
V__dir__() -> list\u000adefault dir() implementation
p85
sa(dp86
g1
g18
sg3
I01
sg10
L5L
sa(dp87
g1
g20
sg3
I01
sg10
L5L
sa(dp88
g1
g22
sg3
I01
sg10
L2L
sg4
Vdefault object formatter
p89
sa(dp90
g1
g25
sg3
I01
sg10
L5L
sa(dp91
g1
g27
sg3
I01
sg10
L5L
sa(dp92
g1
g29
sg3
I01
sg10
L5L
sa(dp93
g1
g31
sg3
I01
sg10
L5L
sa(dp94
g1
g33
sg3
I01
sg10
L5L
sa(dp95
g1
g35
sg3
I01
sg10
L2L
sg4
VThis method is called when a class is subclassed.\u000a\u000aThe default implementation does nothing. It may be\u000aoverridden to extend subclasses.\u000a
p96
sa(dp97
g1
g38
sg3
I01
sg10
L5L
sa(dp98
g1
g40
sg3
I01
sg10
L5L
sa(dp99
g1
V__module__
p100
sg3
I01
sg10
L5L
sa(dp101
g1
g42
sg3
I01
sg10
L5L
sa(dp102
g1
g44
sg3
I01
sg10
L2L
sg4
VCreate and return a new object.  See help(type) for accurate signature.
p103
sa(dp104
g1
g47
sg3
I01
sg10
L2L
sg4
Vhelper for pickle
p105
sa(dp106
g1
g50
sg3
I01
sg10
L2L
sg4
Vhelper for pickle
p107
sa(dp108
g1
g53
sg3
I01
sg10
L5L
sa(dp109
g1
g55
sg3
I01
sg10
L5L
sa(dp110
g1
g57
sg3
I01
sg10
L2L
sg4
V__sizeof__() -> int\u000asize of object in memory, in bytes
p111
sa(dp112
g1
g60
sg3
I01
sg10
L5L
sa(dp113
g1
g62
sg3
I01
sg10
L2L
sg4
VAbstract classes can override this to customize issubclass().\u000a\u000aThis is invoked early on by abc.ABCMeta.__subclasscheck__().\u000aIt should return True, False or NotImplemented.  If it returns\u000aNotImplemented, the normal algorithm is used.  Otherwise, it\u000aoverrides the normal algorithm (and the outcome is cached).\u000a
p114
sa(dp115
g1
V__weakref__
p116
sg3
I01
sg10
L5L
sa(dp117
g1
Vcreate_module
p118
sg3
I01
sg10
L5L
sa(dp119
g1
Vexec_module
p120
sg3
I01
sg10
L5L
sa(dp121
g1
Vfind_module
p122
sg3
I01
sg10
L5L
sa(dp123
g1
Vfind_spec
p124
sg3
I01
sg10
L5L
sa(dp125
g1
Vget_code
p126
sg3
I01
sg10
L5L
sa(dp127
g1
Vget_source
p128
sg3
I01
sg10
L5L
sa(dp129
g1
Vis_package
p130
sg3
I01
sg10
L5L
sa(dp131
g1
Vload_module
p132
sg3
I01
sg10
L5L
sa(dp133
g1
Vmodule_repr
p134
sg3
I01
sg10
L5L
sasg4
VMeta path import for built-in modules.\u000a\u000a    All methods are either class or static methods to avoid the need to\u000a    instantiate the class.\u000a\u000a    
p135
sa(dp136
g1
V__name__
p137
sg3
I01
sg10
L5L
sa(dp138
g1
V__package__
p139
sg3
I01
sg10
L5L
sa(dp140
g1
V__spec__
p141
sg3
I01
sg10
L5L
sa(dp142
g1
Vprofiler_entry
p143
sg3
I01
sg10
L3L
sg6
(lp144
(dp145
g1
V__add__
p146
sg3
I01
sg10
L5L
sa(dp147
g1
V__contains__
p148
sg3
I01
sg10
L5L
sa(dp149
g1
g13
sg3
I01
sg10
L5L
sa(dp150
g1
g15
sg3
I01
sg10
L2L
sg4
V__dir__() -> list\u000adefault dir() implementation
p151
sa(dp152
g1
g18
sg3
I01
sg10
L5L
sa(dp153
g1
g20
sg3
I01
sg10
L5L
sa(dp154
g1
g22
sg3
I01
sg10
L2L
sg4
Vdefault object formatter
p155
sa(dp156
g1
g25
sg3
I01
sg10
L5L
sa(dp157
g1
g27
sg3
I01
sg10
L5L
sa(dp158
g1
V__getitem__
p159
sg3
I01
sg10
L5L
sa(dp160
g1
V__getnewargs__
p161
sg3
I01
sg10
L2L
sg4
Nsa(dp162
g1
g29
sg3
I01
sg10
L5L
sa(dp163
g1
g31
sg3
I01
sg10
L5L
sa(dp164
g1
g33
sg3
I01
sg10
L5L
sa(dp165
g1
g35
sg3
I01
sg10
L2L
sg4
VThis method is called when a class is subclassed.\u000a\u000aThe default implementation does nothing. It may be\u000aoverridden to extend subclasses.\u000a
p166
sa(dp167
g1
V__iter__
p168
sg3
I01
sg10
L5L
sa(dp169
g1
g38
sg3
I01
sg10
L5L
sa(dp170
g1
V__len__
p171
sg3
I01
sg10
L5L
sa(dp172
g1
g40
sg3
I01
sg10
L5L
sa(dp173
g1
V__mul__
p174
sg3
I01
sg10
L5L
sa(dp175
g1
g42
sg3
I01
sg10
L5L
sa(dp176
g1
g44
sg3
I01
sg10
L2L
sg4
VCreate and return a new object.  See help(type) for accurate signature.
p177
sa(dp178
g1
g47
sg3
I01
sg10
L2L
sg4
Nsa(dp179
g1
g50
sg3
I01
sg10
L2L
sg4
Vhelper for pickle
p180
sa(dp181
g1
g53
sg3
I01
sg10
L5L
sa(dp182
g1
V__rmul__
p183
sg3
I01
sg10
L5L
sa(dp184
g1
g55
sg3
I01
sg10
L5L
sa(dp185
g1
g57
sg3
I01
sg10
L2L
sg4
V__sizeof__() -> int\u000asize of object in memory, in bytes
p186
sa(dp187
g1
g60
sg3
I01
sg10
L5L
sa(dp188
g1
g62
sg3
I01
sg10
L2L
sg4
VAbstract classes can override this to customize issubclass().\u000a\u000aThis is invoked early on by abc.ABCMeta.__subclasscheck__().\u000aIt should return True, False or NotImplemented.  If it returns\u000aNotImplemented, the normal algorithm is used.  Otherwise, it\u000aoverrides the normal algorithm (and the outcome is cached).\u000a
p189
sa(dp190
g1
Vcallcount
p191
sg3
I01
sg10
L5L
sa(dp192
g1
Vcalls
p193
sg3
I01
sg10
L5L
sa(dp194
g1
Vcode
p195
sg3
I01
sg10
L5L
sa(dp196
g1
Vcount
p197
sg3
I01
sg10
L2L
sg4
VT.count(value) -> integer -- return number of occurrences of value
p198
sa(dp199
g1
Vindex
p200
sg3
I01
sg10
L2L
sg4
VT.index(value, [start, [stop]]) -> integer -- return first index of value.\u000aRaises ValueError if the value is not present.
p201
sa(dp202
g1
Vinlinetime
p203
sg3
I01
sg10
L5L
sa(dp204
g1
Vn_fields
p205
sg3
I01
sg10
L5L
sa(dp206
g1
Vn_sequence_fields
p207
sg3
I01
sg10
L5L
sa(dp208
g1
Vn_unnamed_fields
p209
sg3
I01
sg10
L5L
sa(dp210
g1
Vreccallcount
p211
sg3
I01
sg10
L5L
sa(dp212
g1
Vtotaltime
p213
sg3
I01
sg10
L5L
sasg4
Nsa(dp214
g1
Vprofiler_subentry
p215
sg3
I01
sg10
L3L
sg6
(lp216
(dp217
g1
g146
sg3
I01
sg10
L5L
sa(dp218
g1
g148
sg3
I01
sg10
L5L
sa(dp219
g1
g13
sg3
I01
sg10
L5L
sa(dp220
g1
g15
sg3
I01
sg10
L2L
sg4
V__dir__() -> list\u000adefault dir() implementation
p221
sa(dp222
g1
g18
sg3
I01
sg10
L5L
sa(dp223
g1
g20
sg3
I01
sg10
L5L
sa(dp224
g1
g22
sg3
I01
sg10
L2L
sg4
Vdefault object formatter
p225
sa(dp226
g1
g25
sg3
I01
sg10
L5L
sa(dp227
g1
g27
sg3
I01
sg10
L5L
sa(dp228
g1
g159
sg3
I01
sg10
L5L
sa(dp229
g1
g161
sg3
I01
sg10
L2L
sg4
Nsa(dp230
g1
g29
sg3
I01
sg10
L5L
sa(dp231
g1
g31
sg3
I01
sg10
L5L
sa(dp232
g1
g33
sg3
I01
sg10
L5L
sa(dp233
g1
g35
sg3
I01
sg10
L2L
sg4
VThis method is called when a class is subclassed.\u000a\u000aThe default implementation does nothing. It may be\u000aoverridden to extend subclasses.\u000a
p234
sa(dp235
g1
g168
sg3
I01
sg10
L5L
sa(dp236
g1
g38
sg3
I01
sg10
L5L
sa(dp237
g1
g171
sg3
I01
sg10
L5L
sa(dp238
g1
g40
sg3
I01
sg10
L5L
sa(dp239
g1
g174
sg3
I01
sg10
L5L
sa(dp240
g1
g42
sg3
I01
sg10
L5L
sa(dp241
g1
g44
sg3
I01
sg10
L2L
sg4
VCreate and return a new object.  See help(type) for accurate signature.
p242
sa(dp243
g1
g47
sg3
I01
sg10
L2L
sg4
Nsa(dp244
g1
g50
sg3
I01
sg10
L2L
sg4
Vhelper for pickle
p245
sa(dp246
g1
g53
sg3
I01
sg10
L5L
sa(dp247
g1
g183
sg3
I01
sg10
L5L
sa(dp248
g1
g55
sg3
I01
sg10
L5L
sa(dp249
g1
g57
sg3
I01
sg10
L2L
sg4
V__sizeof__() -> int\u000asize of object in memory, in bytes
p250
sa(dp251
g1
g60
sg3
I01
sg10
L5L
sa(dp252
g1
g62
sg3
I01
sg10
L2L
sg4
VAbstract classes can override this to customize issubclass().\u000a\u000aThis is invoked early on by abc.ABCMeta.__subclasscheck__().\u000aIt should return True, False or NotImplemented.  If it returns\u000aNotImplemented, the normal algorithm is used.  Otherwise, it\u000aoverrides the normal algorithm (and the outcome is cached).\u000a
p253
sa(dp254
g1
g191
sg3
I01
sg10
L5L
sa(dp255
g1
g195
sg3
I01
sg10
L5L
sa(dp256
g1
g197
sg3
I01
sg10
L2L
sg4
VT.count(value) -> integer -- return number of occurrences of value
p257
sa(dp258
g1
g200
sg3
I01
sg10
L2L
sg4
VT.index(value, [start, [stop]]) -> integer -- return first index of value.\u000aRaises ValueError if the value is not present.
p259
sa(dp260
g1
g203
sg3
I01
sg10
L5L
sa(dp261
g1
g205
sg3
I01
sg10
L5L
sa(dp262
g1
g207
sg3
I01
sg10
L5L
sa(dp263
g1
g209
sg3
I01
sg10
L5L
sa(dp264
g1
g211
sg3
I01
sg10
L5L
sa(dp265
g1
g213
sg3
I01
sg10
L5L
sasg4
Nsasg10
L1L
s.