(dp0
Vname
p1
V_md5
p2
sVis_builtin
p3
I01
sVdoc
p4
NsVchilds
p5
(lp6
(dp7
g1
VMD5Type
p8
sg3
I01
sVtype
p9
L3L
sg5
(lp10
(dp11
g1
V__delattr__
p12
sg3
I01
sg9
L5L
sa(dp13
g1
V__dir__
p14
sg3
I01
sg9
L2L
sg4
V__dir__() -> list\u000adefault dir() implementation
p15
sa(dp16
g1
V__doc__
p17
sg3
I01
sg9
L5L
sa(dp18
g1
V__eq__
p19
sg3
I01
sg9
L5L
sa(dp20
g1
V__format__
p21
sg3
I01
sg9
L2L
sg4
Vdefault object formatter
p22
sa(dp23
g1
V__ge__
p24
sg3
I01
sg9
L5L
sa(dp25
g1
V__getattribute__
p26
sg3
I01
sg9
L5L
sa(dp27
g1
V__gt__
p28
sg3
I01
sg9
L5L
sa(dp29
g1
V__hash__
p30
sg3
I01
sg9
L5L
sa(dp31
g1
V__init__
p32
sg3
I01
sg9
L5L
sa(dp33
g1
V__init_subclass__
p34
sg3
I01
sg9
L2L
sg4
VThis method is called when a class is subclassed.\u000a\u000aThe default implementation does nothing. It may be\u000aoverridden to extend subclasses.\u000a
p35
sa(dp36
g1
V__le__
p37
sg3
I01
sg9
L5L
sa(dp38
g1
V__lt__
p39
sg3
I01
sg9
L5L
sa(dp40
g1
V__ne__
p41
sg3
I01
sg9
L5L
sa(dp42
g1
V__new__
p43
sg3
I01
sg9
L2L
sg4
VCreate and return a new object.  See help(type) for accurate signature.
p44
sa(dp45
g1
V__reduce__
p46
sg3
I01
sg9
L2L
sg4
Vhelper for pickle
p47
sa(dp48
g1
V__reduce_ex__
p49
sg3
I01
sg9
L2L
sg4
Vhelper for pickle
p50
sa(dp51
g1
V__repr__
p52
sg3
I01
sg9
L5L
sa(dp53
g1
V__setattr__
p54
sg3
I01
sg9
L5L
sa(dp55
g1
V__sizeof__
p56
sg3
I01
sg9
L2L
sg4
V__sizeof__() -> int\u000asize of object in memory, in bytes
p57
sa(dp58
g1
V__str__
p59
sg3
I01
sg9
L5L
sa(dp60
g1
V__subclasshook__
p61
sg3
I01
sg9
L2L
sg4
VAbstract classes can override this to customize issubclass().\u000a\u000aThis is invoked early on by abc.ABCMeta.__subclasscheck__().\u000aIt should return True, False or NotImplemented.  If it returns\u000aNotImplemented, the normal algorithm is used.  Otherwise, it\u000aoverrides the normal algorithm (and the outcome is cached).\u000a
p62
sa(dp63
g1
Vblock_size
p64
sg3
I01
sg9
L5L
sa(dp65
g1
Vcopy
p66
sg3
I01
sg9
L2L
sg4
VReturn a copy of the hash object.
p67
sa(dp68
g1
Vdigest
p69
sg3
I01
sg9
L2L
sg4
VReturn the digest value as a string of binary data.
p70
sa(dp71
g1
Vdigest_size
p72
sg3
I01
sg9
L5L
sa(dp73
g1
Vhexdigest
p74
sg3
I01
sg9
L2L
sg4
VReturn the digest value as a string of hexadecimal digits.
p75
sa(dp76
g1
g1
sg3
I01
sg9
L5L
sa(dp77
g1
Vupdate
p78
sg3
I01
sg9
L2L
sg4
VUpdate this hash object's state with the provided string.
p79
sasg4
Nsa(dp80
g1
g17
sg3
I01
sg9
L5L
sa(dp81
g1
V__loader__
p82
sg3
I01
sg9
L3L
sg5
(lp83
(dp84
g1
g12
sg3
I01
sg9
L5L
sa(dp85
g1
V__dict__
p86
sg3
I01
sg9
L5L
sa(dp87
g1
g14
sg3
I01
sg9
L2L
sg4
V__dir__() -> list\u000adefault dir() implementation
p88
sa(dp89
g1
g17
sg3
I01
sg9
L5L
sa(dp90
g1
g19
sg3
I01
sg9
L5L
sa(dp91
g1
g21
sg3
I01
sg9
L2L
sg4
Vdefault object formatter
p92
sa(dp93
g1
g24
sg3
I01
sg9
L5L
sa(dp94
g1
g26
sg3
I01
sg9
L5L
sa(dp95
g1
g28
sg3
I01
sg9
L5L
sa(dp96
g1
g30
sg3
I01
sg9
L5L
sa(dp97
g1
g32
sg3
I01
sg9
L5L
sa(dp98
g1
g34
sg3
I01
sg9
L2L
sg4
VThis method is called when a class is subclassed.\u000a\u000aThe default implementation does nothing. It may be\u000aoverridden to extend subclasses.\u000a
p99
sa(dp100
g1
g37
sg3
I01
sg9
L5L
sa(dp101
g1
g39
sg3
I01
sg9
L5L
sa(dp102
g1
V__module__
p103
sg3
I01
sg9
L5L
sa(dp104
g1
g41
sg3
I01
sg9
L5L
sa(dp105
g1
g43
sg3
I01
sg9
L2L
sg4
VCreate and return a new object.  See help(type) for accurate signature.
p106
sa(dp107
g1
g46
sg3
I01
sg9
L2L
sg4
Vhelper for pickle
p108
sa(dp109
g1
g49
sg3
I01
sg9
L2L
sg4
Vhelper for pickle
p110
sa(dp111
g1
g52
sg3
I01
sg9
L5L
sa(dp112
g1
g54
sg3
I01
sg9
L5L
sa(dp113
g1
g56
sg3
I01
sg9
L2L
sg4
V__sizeof__() -> int\u000asize of object in memory, in bytes
p114
sa(dp115
g1
g59
sg3
I01
sg9
L5L
sa(dp116
g1
g61
sg3
I01
sg9
L2L
sg4
VAbstract classes can override this to customize issubclass().\u000a\u000aThis is invoked early on by abc.ABCMeta.__subclasscheck__().\u000aIt should return True, False or NotImplemented.  If it returns\u000aNotImplemented, the normal algorithm is used.  Otherwise, it\u000aoverrides the normal algorithm (and the outcome is cached).\u000a
p117
sa(dp118
g1
V__weakref__
p119
sg3
I01
sg9
L5L
sa(dp120
g1
Vcreate_module
p121
sg3
I01
sg9
L5L
sa(dp122
g1
Vexec_module
p123
sg3
I01
sg9
L5L
sa(dp124
g1
Vfind_module
p125
sg3
I01
sg9
L5L
sa(dp126
g1
Vfind_spec
p127
sg3
I01
sg9
L5L
sa(dp128
g1
Vget_code
p129
sg3
I01
sg9
L5L
sa(dp130
g1
Vget_source
p131
sg3
I01
sg9
L5L
sa(dp132
g1
Vis_package
p133
sg3
I01
sg9
L5L
sa(dp134
g1
Vload_module
p135
sg3
I01
sg9
L5L
sa(dp136
g1
Vmodule_repr
p137
sg3
I01
sg9
L5L
sasg4
VMeta path import for built-in modules.\u000a\u000a    All methods are either class or static methods to avoid the need to\u000a    instantiate the class.\u000a\u000a    
p138
sa(dp139
g1
V__name__
p140
sg3
I01
sg9
L5L
sa(dp141
g1
V__package__
p142
sg3
I01
sg9
L5L
sa(dp143
g1
V__spec__
p144
sg3
I01
sg9
L5L
sa(dp145
g1
Vmd5
p146
sg3
I01
sg9
L2L
sg4
VReturn a new MD5 hash object; optionally initialized with a string.
p147
sasg9
L1L
s.