(dp0
Vname
p1
V_multibytecodec
p2
sVis_builtin
p3
I01
sVdoc
p4
NsVchilds
p5
(lp6
(dp7
g1
VMultibyteIncrementalDecoder
p8
sg3
I01
sVtype
p9
L3L
sg5
(lp10
(dp11
g1
V__delattr__
p12
sg3
I01
sg9
L5L
sa(dp13
g1
V__dir__
p14
sg3
I01
sg9
L2L
sg4
V__dir__() -> list\u000adefault dir() implementation
p15
sa(dp16
g1
V__doc__
p17
sg3
I01
sg9
L5L
sa(dp18
g1
V__eq__
p19
sg3
I01
sg9
L5L
sa(dp20
g1
V__format__
p21
sg3
I01
sg9
L2L
sg4
Vdefault object formatter
p22
sa(dp23
g1
V__ge__
p24
sg3
I01
sg9
L5L
sa(dp25
g1
V__getattribute__
p26
sg3
I01
sg9
L5L
sa(dp27
g1
V__gt__
p28
sg3
I01
sg9
L5L
sa(dp29
g1
V__hash__
p30
sg3
I01
sg9
L5L
sa(dp31
g1
V__init__
p32
sg3
I01
sg9
L5L
sa(dp33
g1
V__init_subclass__
p34
sg3
I01
sg9
L2L
sg4
VThis method is called when a class is subclassed.\u000a\u000aThe default implementation does nothing. It may be\u000aoverridden to extend subclasses.\u000a
p35
sa(dp36
g1
V__le__
p37
sg3
I01
sg9
L5L
sa(dp38
g1
V__lt__
p39
sg3
I01
sg9
L5L
sa(dp40
g1
V__ne__
p41
sg3
I01
sg9
L5L
sa(dp42
g1
V__new__
p43
sg3
I01
sg9
L2L
sg4
VCreate and return a new object.  See help(type) for accurate signature.
p44
sa(dp45
g1
V__reduce__
p46
sg3
I01
sg9
L2L
sg4
Vhelper for pickle
p47
sa(dp48
g1
V__reduce_ex__
p49
sg3
I01
sg9
L2L
sg4
Vhelper for pickle
p50
sa(dp51
g1
V__repr__
p52
sg3
I01
sg9
L5L
sa(dp53
g1
V__setattr__
p54
sg3
I01
sg9
L5L
sa(dp55
g1
V__sizeof__
p56
sg3
I01
sg9
L2L
sg4
V__sizeof__() -> int\u000asize of object in memory, in bytes
p57
sa(dp58
g1
V__str__
p59
sg3
I01
sg9
L5L
sa(dp60
g1
V__subclasshook__
p61
sg3
I01
sg9
L2L
sg4
VAbstract classes can override this to customize issubclass().\u000a\u000aThis is invoked early on by abc.ABCMeta.__subclasscheck__().\u000aIt should return True, False or NotImplemented.  If it returns\u000aNotImplemented, the normal algorithm is used.  Otherwise, it\u000aoverrides the normal algorithm (and the outcome is cached).\u000a
p62
sa(dp63
g1
Vdecode
p64
sg3
I01
sg9
L2L
sg4
Nsa(dp65
g1
Verrors
p66
sg3
I01
sg9
L5L
sa(dp67
g1
Vreset
p68
sg3
I01
sg9
L2L
sg4
Nsasg4
Nsa(dp69
g1
VMultibyteIncrementalEncoder
p70
sg3
I01
sg9
L3L
sg5
(lp71
(dp72
g1
g12
sg3
I01
sg9
L5L
sa(dp73
g1
g14
sg3
I01
sg9
L2L
sg4
V__dir__() -> list\u000adefault dir() implementation
p74
sa(dp75
g1
g17
sg3
I01
sg9
L5L
sa(dp76
g1
g19
sg3
I01
sg9
L5L
sa(dp77
g1
g21
sg3
I01
sg9
L2L
sg4
Vdefault object formatter
p78
sa(dp79
g1
g24
sg3
I01
sg9
L5L
sa(dp80
g1
g26
sg3
I01
sg9
L5L
sa(dp81
g1
g28
sg3
I01
sg9
L5L
sa(dp82
g1
g30
sg3
I01
sg9
L5L
sa(dp83
g1
g32
sg3
I01
sg9
L5L
sa(dp84
g1
g34
sg3
I01
sg9
L2L
sg4
VThis method is called when a class is subclassed.\u000a\u000aThe default implementation does nothing. It may be\u000aoverridden to extend subclasses.\u000a
p85
sa(dp86
g1
g37
sg3
I01
sg9
L5L
sa(dp87
g1
g39
sg3
I01
sg9
L5L
sa(dp88
g1
g41
sg3
I01
sg9
L5L
sa(dp89
g1
g43
sg3
I01
sg9
L2L
sg4
VCreate and return a new object.  See help(type) for accurate signature.
p90
sa(dp91
g1
g46
sg3
I01
sg9
L2L
sg4
Vhelper for pickle
p92
sa(dp93
g1
g49
sg3
I01
sg9
L2L
sg4
Vhelper for pickle
p94
sa(dp95
g1
g52
sg3
I01
sg9
L5L
sa(dp96
g1
g54
sg3
I01
sg9
L5L
sa(dp97
g1
g56
sg3
I01
sg9
L2L
sg4
V__sizeof__() -> int\u000asize of object in memory, in bytes
p98
sa(dp99
g1
g59
sg3
I01
sg9
L5L
sa(dp100
g1
g61
sg3
I01
sg9
L2L
sg4
VAbstract classes can override this to customize issubclass().\u000a\u000aThis is invoked early on by abc.ABCMeta.__subclasscheck__().\u000aIt should return True, False or NotImplemented.  If it returns\u000aNotImplemented, the normal algorithm is used.  Otherwise, it\u000aoverrides the normal algorithm (and the outcome is cached).\u000a
p101
sa(dp102
g1
Vencode
p103
sg3
I01
sg9
L2L
sg4
Nsa(dp104
g1
g66
sg3
I01
sg9
L5L
sa(dp105
g1
g68
sg3
I01
sg9
L2L
sg4
Nsasg4
Nsa(dp106
g1
VMultibyteStreamReader
p107
sg3
I01
sg9
L3L
sg5
(lp108
(dp109
g1
g12
sg3
I01
sg9
L5L
sa(dp110
g1
g14
sg3
I01
sg9
L2L
sg4
V__dir__() -> list\u000adefault dir() implementation
p111
sa(dp112
g1
g17
sg3
I01
sg9
L5L
sa(dp113
g1
g19
sg3
I01
sg9
L5L
sa(dp114
g1
g21
sg3
I01
sg9
L2L
sg4
Vdefault object formatter
p115
sa(dp116
g1
g24
sg3
I01
sg9
L5L
sa(dp117
g1
g26
sg3
I01
sg9
L5L
sa(dp118
g1
g28
sg3
I01
sg9
L5L
sa(dp119
g1
g30
sg3
I01
sg9
L5L
sa(dp120
g1
g32
sg3
I01
sg9
L5L
sa(dp121
g1
g34
sg3
I01
sg9
L2L
sg4
VThis method is called when a class is subclassed.\u000a\u000aThe default implementation does nothing. It may be\u000aoverridden to extend subclasses.\u000a
p122
sa(dp123
g1
g37
sg3
I01
sg9
L5L
sa(dp124
g1
g39
sg3
I01
sg9
L5L
sa(dp125
g1
g41
sg3
I01
sg9
L5L
sa(dp126
g1
g43
sg3
I01
sg9
L2L
sg4
VCreate and return a new object.  See help(type) for accurate signature.
p127
sa(dp128
g1
g46
sg3
I01
sg9
L2L
sg4
Vhelper for pickle
p129
sa(dp130
g1
g49
sg3
I01
sg9
L2L
sg4
Vhelper for pickle
p131
sa(dp132
g1
g52
sg3
I01
sg9
L5L
sa(dp133
g1
g54
sg3
I01
sg9
L5L
sa(dp134
g1
g56
sg3
I01
sg9
L2L
sg4
V__sizeof__() -> int\u000asize of object in memory, in bytes
p135
sa(dp136
g1
g59
sg3
I01
sg9
L5L
sa(dp137
g1
g61
sg3
I01
sg9
L2L
sg4
VAbstract classes can override this to customize issubclass().\u000a\u000aThis is invoked early on by abc.ABCMeta.__subclasscheck__().\u000aIt should return True, False or NotImplemented.  If it returns\u000aNotImplemented, the normal algorithm is used.  Otherwise, it\u000aoverrides the normal algorithm (and the outcome is cached).\u000a
p138
sa(dp139
g1
g66
sg3
I01
sg9
L5L
sa(dp140
g1
Vread
p141
sg3
I01
sg9
L2L
sg4
Nsa(dp142
g1
Vreadline
p143
sg3
I01
sg9
L2L
sg4
Nsa(dp144
g1
Vreadlines
p145
sg3
I01
sg9
L2L
sg4
Nsa(dp146
g1
g68
sg3
I01
sg9
L2L
sg4
Nsa(dp147
g1
Vstream
p148
sg3
I01
sg9
L5L
sasg4
Nsa(dp149
g1
VMultibyteStreamWriter
p150
sg3
I01
sg9
L3L
sg5
(lp151
(dp152
g1
g12
sg3
I01
sg9
L5L
sa(dp153
g1
g14
sg3
I01
sg9
L2L
sg4
V__dir__() -> list\u000adefault dir() implementation
p154
sa(dp155
g1
g17
sg3
I01
sg9
L5L
sa(dp156
g1
g19
sg3
I01
sg9
L5L
sa(dp157
g1
g21
sg3
I01
sg9
L2L
sg4
Vdefault object formatter
p158
sa(dp159
g1
g24
sg3
I01
sg9
L5L
sa(dp160
g1
g26
sg3
I01
sg9
L5L
sa(dp161
g1
g28
sg3
I01
sg9
L5L
sa(dp162
g1
g30
sg3
I01
sg9
L5L
sa(dp163
g1
g32
sg3
I01
sg9
L5L
sa(dp164
g1
g34
sg3
I01
sg9
L2L
sg4
VThis method is called when a class is subclassed.\u000a\u000aThe default implementation does nothing. It may be\u000aoverridden to extend subclasses.\u000a
p165
sa(dp166
g1
g37
sg3
I01
sg9
L5L
sa(dp167
g1
g39
sg3
I01
sg9
L5L
sa(dp168
g1
g41
sg3
I01
sg9
L5L
sa(dp169
g1
g43
sg3
I01
sg9
L2L
sg4
VCreate and return a new object.  See help(type) for accurate signature.
p170
sa(dp171
g1
g46
sg3
I01
sg9
L2L
sg4
Vhelper for pickle
p172
sa(dp173
g1
g49
sg3
I01
sg9
L2L
sg4
Vhelper for pickle
p174
sa(dp175
g1
g52
sg3
I01
sg9
L5L
sa(dp176
g1
g54
sg3
I01
sg9
L5L
sa(dp177
g1
g56
sg3
I01
sg9
L2L
sg4
V__sizeof__() -> int\u000asize of object in memory, in bytes
p178
sa(dp179
g1
g59
sg3
I01
sg9
L5L
sa(dp180
g1
g61
sg3
I01
sg9
L2L
sg4
VAbstract classes can override this to customize issubclass().\u000a\u000aThis is invoked early on by abc.ABCMeta.__subclasscheck__().\u000aIt should return True, False or NotImplemented.  If it returns\u000aNotImplemented, the normal algorithm is used.  Otherwise, it\u000aoverrides the normal algorithm (and the outcome is cached).\u000a
p181
sa(dp182
g1
g66
sg3
I01
sg9
L5L
sa(dp183
g1
g68
sg3
I01
sg9
L2L
sg4
Nsa(dp184
g1
g148
sg3
I01
sg9
L5L
sa(dp185
g1
Vwrite
p186
sg3
I01
sg9
L2L
sg4
Nsa(dp187
g1
Vwritelines
p188
sg3
I01
sg9
L2L
sg4
Nsasg4
Nsa(dp189
g1
V__create_codec
p190
sg3
I01
sg9
L2L
sg4
Nsa(dp191
g1
g17
sg3
I01
sg9
L5L
sa(dp192
g1
V__loader__
p193
sg3
I01
sg9
L3L
sg5
(lp194
(dp195
g1
g12
sg3
I01
sg9
L5L
sa(dp196
g1
V__dict__
p197
sg3
I01
sg9
L5L
sa(dp198
g1
g14
sg3
I01
sg9
L2L
sg4
V__dir__() -> list\u000adefault dir() implementation
p199
sa(dp200
g1
g17
sg3
I01
sg9
L5L
sa(dp201
g1
g19
sg3
I01
sg9
L5L
sa(dp202
g1
g21
sg3
I01
sg9
L2L
sg4
Vdefault object formatter
p203
sa(dp204
g1
g24
sg3
I01
sg9
L5L
sa(dp205
g1
g26
sg3
I01
sg9
L5L
sa(dp206
g1
g28
sg3
I01
sg9
L5L
sa(dp207
g1
g30
sg3
I01
sg9
L5L
sa(dp208
g1
g32
sg3
I01
sg9
L5L
sa(dp209
g1
g34
sg3
I01
sg9
L2L
sg4
VThis method is called when a class is subclassed.\u000a\u000aThe default implementation does nothing. It may be\u000aoverridden to extend subclasses.\u000a
p210
sa(dp211
g1
g37
sg3
I01
sg9
L5L
sa(dp212
g1
g39
sg3
I01
sg9
L5L
sa(dp213
g1
V__module__
p214
sg3
I01
sg9
L5L
sa(dp215
g1
g41
sg3
I01
sg9
L5L
sa(dp216
g1
g43
sg3
I01
sg9
L2L
sg4
VCreate and return a new object.  See help(type) for accurate signature.
p217
sa(dp218
g1
g46
sg3
I01
sg9
L2L
sg4
Vhelper for pickle
p219
sa(dp220
g1
g49
sg3
I01
sg9
L2L
sg4
Vhelper for pickle
p221
sa(dp222
g1
g52
sg3
I01
sg9
L5L
sa(dp223
g1
g54
sg3
I01
sg9
L5L
sa(dp224
g1
g56
sg3
I01
sg9
L2L
sg4
V__sizeof__() -> int\u000asize of object in memory, in bytes
p225
sa(dp226
g1
g59
sg3
I01
sg9
L5L
sa(dp227
g1
g61
sg3
I01
sg9
L2L
sg4
VAbstract classes can override this to customize issubclass().\u000a\u000aThis is invoked early on by abc.ABCMeta.__subclasscheck__().\u000aIt should return True, False or NotImplemented.  If it returns\u000aNotImplemented, the normal algorithm is used.  Otherwise, it\u000aoverrides the normal algorithm (and the outcome is cached).\u000a
p228
sa(dp229
g1
V__weakref__
p230
sg3
I01
sg9
L5L
sa(dp231
g1
Vcreate_module
p232
sg3
I01
sg9
L5L
sa(dp233
g1
Vexec_module
p234
sg3
I01
sg9
L5L
sa(dp235
g1
Vfind_module
p236
sg3
I01
sg9
L5L
sa(dp237
g1
Vfind_spec
p238
sg3
I01
sg9
L5L
sa(dp239
g1
Vget_code
p240
sg3
I01
sg9
L5L
sa(dp241
g1
Vget_source
p242
sg3
I01
sg9
L5L
sa(dp243
g1
Vis_package
p244
sg3
I01
sg9
L5L
sa(dp245
g1
Vload_module
p246
sg3
I01
sg9
L5L
sa(dp247
g1
Vmodule_repr
p248
sg3
I01
sg9
L5L
sasg4
VMeta path import for built-in modules.\u000a\u000a    All methods are either class or static methods to avoid the need to\u000a    instantiate the class.\u000a\u000a    
p249
sa(dp250
g1
V__name__
p251
sg3
I01
sg9
L5L
sa(dp252
g1
V__package__
p253
sg3
I01
sg9
L5L
sa(dp254
g1
V__spec__
p255
sg3
I01
sg9
L5L
sasg9
L1L
s.