(dp0
Vname
p1
V_random
p2
sVis_builtin
p3
I01
sVdoc
p4
VModule implements the Mersenne Twister random number generator.
p5
sVchilds
p6
(lp7
(dp8
g1
VRandom
p9
sg3
I01
sVtype
p10
L3L
sg6
(lp11
(dp12
g1
V__delattr__
p13
sg3
I01
sg10
L5L
sa(dp14
g1
V__dir__
p15
sg3
I01
sg10
L2L
sg4
V__dir__() -> list\u000adefault dir() implementation
p16
sa(dp17
g1
V__doc__
p18
sg3
I01
sg10
L5L
sa(dp19
g1
V__eq__
p20
sg3
I01
sg10
L5L
sa(dp21
g1
V__format__
p22
sg3
I01
sg10
L2L
sg4
Vdefault object formatter
p23
sa(dp24
g1
V__ge__
p25
sg3
I01
sg10
L5L
sa(dp26
g1
V__getattribute__
p27
sg3
I01
sg10
L5L
sa(dp28
g1
V__gt__
p29
sg3
I01
sg10
L5L
sa(dp30
g1
V__hash__
p31
sg3
I01
sg10
L5L
sa(dp32
g1
V__init__
p33
sg3
I01
sg10
L5L
sa(dp34
g1
V__init_subclass__
p35
sg3
I01
sg10
L2L
sg4
VThis method is called when a class is subclassed.\u000a\u000aThe default implementation does nothing. It may be\u000aoverridden to extend subclasses.\u000a
p36
sa(dp37
g1
V__le__
p38
sg3
I01
sg10
L5L
sa(dp39
g1
V__lt__
p40
sg3
I01
sg10
L5L
sa(dp41
g1
V__ne__
p42
sg3
I01
sg10
L5L
sa(dp43
g1
V__new__
p44
sg3
I01
sg10
L2L
sg4
VCreate and return a new object.  See help(type) for accurate signature.
p45
sa(dp46
g1
V__reduce__
p47
sg3
I01
sg10
L2L
sg4
Vhelper for pickle
p48
sa(dp49
g1
V__reduce_ex__
p50
sg3
I01
sg10
L2L
sg4
Vhelper for pickle
p51
sa(dp52
g1
V__repr__
p53
sg3
I01
sg10
L5L
sa(dp54
g1
V__setattr__
p55
sg3
I01
sg10
L5L
sa(dp56
g1
V__sizeof__
p57
sg3
I01
sg10
L2L
sg4
V__sizeof__() -> int\u000asize of object in memory, in bytes
p58
sa(dp59
g1
V__str__
p60
sg3
I01
sg10
L5L
sa(dp61
g1
V__subclasshook__
p62
sg3
I01
sg10
L2L
sg4
VAbstract classes can override this to customize issubclass().\u000a\u000aThis is invoked early on by abc.ABCMeta.__subclasscheck__().\u000aIt should return True, False or NotImplemented.  If it returns\u000aNotImplemented, the normal algorithm is used.  Otherwise, it\u000aoverrides the normal algorithm (and the outcome is cached).\u000a
p63
sa(dp64
g1
Vgetrandbits
p65
sg3
I01
sg10
L2L
sg4
Vgetrandbits(k) -> x.  Generates an int with k random bits.
p66
sa(dp67
g1
Vgetstate
p68
sg3
I01
sg10
L2L
sg4
Vgetstate() -> tuple containing the current state.
p69
sa(dp70
g1
Vrandom
p71
sg3
I01
sg10
L2L
sg4
Vrandom() -> x in the interval [0, 1).
p72
sa(dp73
g1
Vseed
p74
sg3
I01
sg10
L2L
sg4
Vseed([n]) -> None.  Defaults to current time.
p75
sa(dp76
g1
Vsetstate
p77
sg3
I01
sg10
L2L
sg4
Vsetstate(state) -> None.  Restores generator state.
p78
sasg4
VRandom() -> create a random number generator with its own internal state.
p79
sa(dp80
g1
g18
sg3
I01
sg10
L5L
sa(dp81
g1
V__loader__
p82
sg3
I01
sg10
L3L
sg6
(lp83
(dp84
g1
g13
sg3
I01
sg10
L5L
sa(dp85
g1
V__dict__
p86
sg3
I01
sg10
L5L
sa(dp87
g1
g15
sg3
I01
sg10
L2L
sg4
V__dir__() -> list\u000adefault dir() implementation
p88
sa(dp89
g1
g18
sg3
I01
sg10
L5L
sa(dp90
g1
g20
sg3
I01
sg10
L5L
sa(dp91
g1
g22
sg3
I01
sg10
L2L
sg4
Vdefault object formatter
p92
sa(dp93
g1
g25
sg3
I01
sg10
L5L
sa(dp94
g1
g27
sg3
I01
sg10
L5L
sa(dp95
g1
g29
sg3
I01
sg10
L5L
sa(dp96
g1
g31
sg3
I01
sg10
L5L
sa(dp97
g1
g33
sg3
I01
sg10
L5L
sa(dp98
g1
g35
sg3
I01
sg10
L2L
sg4
VThis method is called when a class is subclassed.\u000a\u000aThe default implementation does nothing. It may be\u000aoverridden to extend subclasses.\u000a
p99
sa(dp100
g1
g38
sg3
I01
sg10
L5L
sa(dp101
g1
g40
sg3
I01
sg10
L5L
sa(dp102
g1
V__module__
p103
sg3
I01
sg10
L5L
sa(dp104
g1
g42
sg3
I01
sg10
L5L
sa(dp105
g1
g44
sg3
I01
sg10
L2L
sg4
VCreate and return a new object.  See help(type) for accurate signature.
p106
sa(dp107
g1
g47
sg3
I01
sg10
L2L
sg4
Vhelper for pickle
p108
sa(dp109
g1
g50
sg3
I01
sg10
L2L
sg4
Vhelper for pickle
p110
sa(dp111
g1
g53
sg3
I01
sg10
L5L
sa(dp112
g1
g55
sg3
I01
sg10
L5L
sa(dp113
g1
g57
sg3
I01
sg10
L2L
sg4
V__sizeof__() -> int\u000asize of object in memory, in bytes
p114
sa(dp115
g1
g60
sg3
I01
sg10
L5L
sa(dp116
g1
g62
sg3
I01
sg10
L2L
sg4
VAbstract classes can override this to customize issubclass().\u000a\u000aThis is invoked early on by abc.ABCMeta.__subclasscheck__().\u000aIt should return True, False or NotImplemented.  If it returns\u000aNotImplemented, the normal algorithm is used.  Otherwise, it\u000aoverrides the normal algorithm (and the outcome is cached).\u000a
p117
sa(dp118
g1
V__weakref__
p119
sg3
I01
sg10
L5L
sa(dp120
g1
Vcreate_module
p121
sg3
I01
sg10
L5L
sa(dp122
g1
Vexec_module
p123
sg3
I01
sg10
L5L
sa(dp124
g1
Vfind_module
p125
sg3
I01
sg10
L5L
sa(dp126
g1
Vfind_spec
p127
sg3
I01
sg10
L5L
sa(dp128
g1
Vget_code
p129
sg3
I01
sg10
L5L
sa(dp130
g1
Vget_source
p131
sg3
I01
sg10
L5L
sa(dp132
g1
Vis_package
p133
sg3
I01
sg10
L5L
sa(dp134
g1
Vload_module
p135
sg3
I01
sg10
L5L
sa(dp136
g1
Vmodule_repr
p137
sg3
I01
sg10
L5L
sasg4
VMeta path import for built-in modules.\u000a\u000a    All methods are either class or static methods to avoid the need to\u000a    instantiate the class.\u000a\u000a    
p138
sa(dp139
g1
V__name__
p140
sg3
I01
sg10
L5L
sa(dp141
g1
V__package__
p142
sg3
I01
sg10
L5L
sa(dp143
g1
V__spec__
p144
sg3
I01
sg10
L5L
sasg10
L1L
s.