(dp0
Vname
p1
V_sha3
p2
sVis_builtin
p3
I01
sVdoc
p4
NsVchilds
p5
(lp6
(dp7
g1
V__doc__
p8
sg3
I01
sVtype
p9
L5L
sa(dp10
g1
V__loader__
p11
sg3
I01
sg9
L3L
sg5
(lp12
(dp13
g1
V__delattr__
p14
sg3
I01
sg9
L5L
sa(dp15
g1
V__dict__
p16
sg3
I01
sg9
L5L
sa(dp17
g1
V__dir__
p18
sg3
I01
sg9
L2L
sg4
V__dir__() -> list\u000adefault dir() implementation
p19
sa(dp20
g1
g8
sg3
I01
sg9
L5L
sa(dp21
g1
V__eq__
p22
sg3
I01
sg9
L5L
sa(dp23
g1
V__format__
p24
sg3
I01
sg9
L2L
sg4
Vdefault object formatter
p25
sa(dp26
g1
V__ge__
p27
sg3
I01
sg9
L5L
sa(dp28
g1
V__getattribute__
p29
sg3
I01
sg9
L5L
sa(dp30
g1
V__gt__
p31
sg3
I01
sg9
L5L
sa(dp32
g1
V__hash__
p33
sg3
I01
sg9
L5L
sa(dp34
g1
V__init__
p35
sg3
I01
sg9
L5L
sa(dp36
g1
V__init_subclass__
p37
sg3
I01
sg9
L2L
sg4
VThis method is called when a class is subclassed.\u000a\u000aThe default implementation does nothing. It may be\u000aoverridden to extend subclasses.\u000a
p38
sa(dp39
g1
V__le__
p40
sg3
I01
sg9
L5L
sa(dp41
g1
V__lt__
p42
sg3
I01
sg9
L5L
sa(dp43
g1
V__module__
p44
sg3
I01
sg9
L5L
sa(dp45
g1
V__ne__
p46
sg3
I01
sg9
L5L
sa(dp47
g1
V__new__
p48
sg3
I01
sg9
L2L
sg4
VCreate and return a new object.  See help(type) for accurate signature.
p49
sa(dp50
g1
V__reduce__
p51
sg3
I01
sg9
L2L
sg4
Vhelper for pickle
p52
sa(dp53
g1
V__reduce_ex__
p54
sg3
I01
sg9
L2L
sg4
Vhelper for pickle
p55
sa(dp56
g1
V__repr__
p57
sg3
I01
sg9
L5L
sa(dp58
g1
V__setattr__
p59
sg3
I01
sg9
L5L
sa(dp60
g1
V__sizeof__
p61
sg3
I01
sg9
L2L
sg4
V__sizeof__() -> int\u000asize of object in memory, in bytes
p62
sa(dp63
g1
V__str__
p64
sg3
I01
sg9
L5L
sa(dp65
g1
V__subclasshook__
p66
sg3
I01
sg9
L2L
sg4
VAbstract classes can override this to customize issubclass().\u000a\u000aThis is invoked early on by abc.ABCMeta.__subclasscheck__().\u000aIt should return True, False or NotImplemented.  If it returns\u000aNotImplemented, the normal algorithm is used.  Otherwise, it\u000aoverrides the normal algorithm (and the outcome is cached).\u000a
p67
sa(dp68
g1
V__weakref__
p69
sg3
I01
sg9
L5L
sa(dp70
g1
Vcreate_module
p71
sg3
I01
sg9
L5L
sa(dp72
g1
Vexec_module
p73
sg3
I01
sg9
L5L
sa(dp74
g1
Vfind_module
p75
sg3
I01
sg9
L5L
sa(dp76
g1
Vfind_spec
p77
sg3
I01
sg9
L5L
sa(dp78
g1
Vget_code
p79
sg3
I01
sg9
L5L
sa(dp80
g1
Vget_source
p81
sg3
I01
sg9
L5L
sa(dp82
g1
Vis_package
p83
sg3
I01
sg9
L5L
sa(dp84
g1
Vload_module
p85
sg3
I01
sg9
L5L
sa(dp86
g1
Vmodule_repr
p87
sg3
I01
sg9
L5L
sasg4
VMeta path import for built-in modules.\u000a\u000a    All methods are either class or static methods to avoid the need to\u000a    instantiate the class.\u000a\u000a    
p88
sa(dp89
g1
V__name__
p90
sg3
I01
sg9
L5L
sa(dp91
g1
V__package__
p92
sg3
I01
sg9
L5L
sa(dp93
g1
V__spec__
p94
sg3
I01
sg9
L5L
sa(dp95
g1
Vimplementation
p96
sg3
I01
sg9
L5L
sa(dp97
g1
Vkeccakopt
p98
sg3
I01
sg9
L5L
sa(dp99
g1
Vsha3_224
p100
sg3
I01
sg9
L3L
sg5
(lp101
(dp102
g1
g14
sg3
I01
sg9
L5L
sa(dp103
g1
g18
sg3
I01
sg9
L2L
sg4
V__dir__() -> list\u000adefault dir() implementation
p104
sa(dp105
g1
g8
sg3
I01
sg9
L5L
sa(dp106
g1
g22
sg3
I01
sg9
L5L
sa(dp107
g1
g24
sg3
I01
sg9
L2L
sg4
Vdefault object formatter
p108
sa(dp109
g1
g27
sg3
I01
sg9
L5L
sa(dp110
g1
g29
sg3
I01
sg9
L5L
sa(dp111
g1
g31
sg3
I01
sg9
L5L
sa(dp112
g1
g33
sg3
I01
sg9
L5L
sa(dp113
g1
g35
sg3
I01
sg9
L5L
sa(dp114
g1
g37
sg3
I01
sg9
L2L
sg4
VThis method is called when a class is subclassed.\u000a\u000aThe default implementation does nothing. It may be\u000aoverridden to extend subclasses.\u000a
p115
sa(dp116
g1
g40
sg3
I01
sg9
L5L
sa(dp117
g1
g42
sg3
I01
sg9
L5L
sa(dp118
g1
g46
sg3
I01
sg9
L5L
sa(dp119
g1
g48
sg3
I01
sg9
L2L
sg4
VCreate and return a new object.  See help(type) for accurate signature.
p120
sa(dp121
g1
g51
sg3
I01
sg9
L2L
sg4
Vhelper for pickle
p122
sa(dp123
g1
g54
sg3
I01
sg9
L2L
sg4
Vhelper for pickle
p124
sa(dp125
g1
g57
sg3
I01
sg9
L5L
sa(dp126
g1
g59
sg3
I01
sg9
L5L
sa(dp127
g1
g61
sg3
I01
sg9
L2L
sg4
V__sizeof__() -> int\u000asize of object in memory, in bytes
p128
sa(dp129
g1
g64
sg3
I01
sg9
L5L
sa(dp130
g1
g66
sg3
I01
sg9
L2L
sg4
VAbstract classes can override this to customize issubclass().\u000a\u000aThis is invoked early on by abc.ABCMeta.__subclasscheck__().\u000aIt should return True, False or NotImplemented.  If it returns\u000aNotImplemented, the normal algorithm is used.  Otherwise, it\u000aoverrides the normal algorithm (and the outcome is cached).\u000a
p131
sa(dp132
g1
V_capacity_bits
p133
sg3
I01
sg9
L5L
sa(dp134
g1
V_rate_bits
p135
sg3
I01
sg9
L5L
sa(dp136
g1
V_suffix
p137
sg3
I01
sg9
L5L
sa(dp138
g1
Vblock_size
p139
sg3
I01
sg9
L5L
sa(dp140
g1
Vcopy
p141
sg3
I01
sg9
L2L
sg4
VReturn a copy of the hash object.
p142
sa(dp143
g1
Vdigest
p144
sg3
I01
sg9
L2L
sg4
VReturn the digest value as a string of binary data.
p145
sa(dp146
g1
Vdigest_size
p147
sg3
I01
sg9
L5L
sa(dp148
g1
Vhexdigest
p149
sg3
I01
sg9
L2L
sg4
VReturn the digest value as a string of hexadecimal digits.
p150
sa(dp151
g1
g1
sg3
I01
sg9
L5L
sa(dp152
g1
Vupdate
p153
sg3
I01
sg9
L2L
sg4
VUpdate this hash object's state with the provided string.
p154
sasg4
VReturn a new SHA3 hash object with a hashbit length of 28 bytes.
p155
sa(dp156
g1
Vsha3_256
p157
sg3
I01
sg9
L3L
sg5
(lp158
(dp159
g1
g14
sg3
I01
sg9
L5L
sa(dp160
g1
g18
sg3
I01
sg9
L2L
sg4
V__dir__() -> list\u000adefault dir() implementation
p161
sa(dp162
g1
g8
sg3
I01
sg9
L5L
sa(dp163
g1
g22
sg3
I01
sg9
L5L
sa(dp164
g1
g24
sg3
I01
sg9
L2L
sg4
Vdefault object formatter
p165
sa(dp166
g1
g27
sg3
I01
sg9
L5L
sa(dp167
g1
g29
sg3
I01
sg9
L5L
sa(dp168
g1
g31
sg3
I01
sg9
L5L
sa(dp169
g1
g33
sg3
I01
sg9
L5L
sa(dp170
g1
g35
sg3
I01
sg9
L5L
sa(dp171
g1
g37
sg3
I01
sg9
L2L
sg4
VThis method is called when a class is subclassed.\u000a\u000aThe default implementation does nothing. It may be\u000aoverridden to extend subclasses.\u000a
p172
sa(dp173
g1
g40
sg3
I01
sg9
L5L
sa(dp174
g1
g42
sg3
I01
sg9
L5L
sa(dp175
g1
g46
sg3
I01
sg9
L5L
sa(dp176
g1
g48
sg3
I01
sg9
L2L
sg4
VCreate and return a new object.  See help(type) for accurate signature.
p177
sa(dp178
g1
g51
sg3
I01
sg9
L2L
sg4
Vhelper for pickle
p179
sa(dp180
g1
g54
sg3
I01
sg9
L2L
sg4
Vhelper for pickle
p181
sa(dp182
g1
g57
sg3
I01
sg9
L5L
sa(dp183
g1
g59
sg3
I01
sg9
L5L
sa(dp184
g1
g61
sg3
I01
sg9
L2L
sg4
V__sizeof__() -> int\u000asize of object in memory, in bytes
p185
sa(dp186
g1
g64
sg3
I01
sg9
L5L
sa(dp187
g1
g66
sg3
I01
sg9
L2L
sg4
VAbstract classes can override this to customize issubclass().\u000a\u000aThis is invoked early on by abc.ABCMeta.__subclasscheck__().\u000aIt should return True, False or NotImplemented.  If it returns\u000aNotImplemented, the normal algorithm is used.  Otherwise, it\u000aoverrides the normal algorithm (and the outcome is cached).\u000a
p188
sa(dp189
g1
g133
sg3
I01
sg9
L5L
sa(dp190
g1
g135
sg3
I01
sg9
L5L
sa(dp191
g1
g137
sg3
I01
sg9
L5L
sa(dp192
g1
g139
sg3
I01
sg9
L5L
sa(dp193
g1
g141
sg3
I01
sg9
L2L
sg4
VReturn a copy of the hash object.
p194
sa(dp195
g1
g144
sg3
I01
sg9
L2L
sg4
VReturn the digest value as a string of binary data.
p196
sa(dp197
g1
g147
sg3
I01
sg9
L5L
sa(dp198
g1
g149
sg3
I01
sg9
L2L
sg4
VReturn the digest value as a string of hexadecimal digits.
p199
sa(dp200
g1
g1
sg3
I01
sg9
L5L
sa(dp201
g1
g153
sg3
I01
sg9
L2L
sg4
VUpdate this hash object's state with the provided string.
p202
sasg4
Vsha3_256([string]) -> SHA3 object\u000a\u000aReturn a new SHA3 hash object with a hashbit length of 32 bytes.
p203
sa(dp204
g1
Vsha3_384
p205
sg3
I01
sg9
L3L
sg5
(lp206
(dp207
g1
g14
sg3
I01
sg9
L5L
sa(dp208
g1
g18
sg3
I01
sg9
L2L
sg4
V__dir__() -> list\u000adefault dir() implementation
p209
sa(dp210
g1
g8
sg3
I01
sg9
L5L
sa(dp211
g1
g22
sg3
I01
sg9
L5L
sa(dp212
g1
g24
sg3
I01
sg9
L2L
sg4
Vdefault object formatter
p213
sa(dp214
g1
g27
sg3
I01
sg9
L5L
sa(dp215
g1
g29
sg3
I01
sg9
L5L
sa(dp216
g1
g31
sg3
I01
sg9
L5L
sa(dp217
g1
g33
sg3
I01
sg9
L5L
sa(dp218
g1
g35
sg3
I01
sg9
L5L
sa(dp219
g1
g37
sg3
I01
sg9
L2L
sg4
VThis method is called when a class is subclassed.\u000a\u000aThe default implementation does nothing. It may be\u000aoverridden to extend subclasses.\u000a
p220
sa(dp221
g1
g40
sg3
I01
sg9
L5L
sa(dp222
g1
g42
sg3
I01
sg9
L5L
sa(dp223
g1
g46
sg3
I01
sg9
L5L
sa(dp224
g1
g48
sg3
I01
sg9
L2L
sg4
VCreate and return a new object.  See help(type) for accurate signature.
p225
sa(dp226
g1
g51
sg3
I01
sg9
L2L
sg4
Vhelper for pickle
p227
sa(dp228
g1
g54
sg3
I01
sg9
L2L
sg4
Vhelper for pickle
p229
sa(dp230
g1
g57
sg3
I01
sg9
L5L
sa(dp231
g1
g59
sg3
I01
sg9
L5L
sa(dp232
g1
g61
sg3
I01
sg9
L2L
sg4
V__sizeof__() -> int\u000asize of object in memory, in bytes
p233
sa(dp234
g1
g64
sg3
I01
sg9
L5L
sa(dp235
g1
g66
sg3
I01
sg9
L2L
sg4
VAbstract classes can override this to customize issubclass().\u000a\u000aThis is invoked early on by abc.ABCMeta.__subclasscheck__().\u000aIt should return True, False or NotImplemented.  If it returns\u000aNotImplemented, the normal algorithm is used.  Otherwise, it\u000aoverrides the normal algorithm (and the outcome is cached).\u000a
p236
sa(dp237
g1
g133
sg3
I01
sg9
L5L
sa(dp238
g1
g135
sg3
I01
sg9
L5L
sa(dp239
g1
g137
sg3
I01
sg9
L5L
sa(dp240
g1
g139
sg3
I01
sg9
L5L
sa(dp241
g1
g141
sg3
I01
sg9
L2L
sg4
VReturn a copy of the hash object.
p242
sa(dp243
g1
g144
sg3
I01
sg9
L2L
sg4
VReturn the digest value as a string of binary data.
p244
sa(dp245
g1
g147
sg3
I01
sg9
L5L
sa(dp246
g1
g149
sg3
I01
sg9
L2L
sg4
VReturn the digest value as a string of hexadecimal digits.
p247
sa(dp248
g1
g1
sg3
I01
sg9
L5L
sa(dp249
g1
g153
sg3
I01
sg9
L2L
sg4
VUpdate this hash object's state with the provided string.
p250
sasg4
Vsha3_384([string]) -> SHA3 object\u000a\u000aReturn a new SHA3 hash object with a hashbit length of 48 bytes.
p251
sa(dp252
g1
Vsha3_512
p253
sg3
I01
sg9
L3L
sg5
(lp254
(dp255
g1
g14
sg3
I01
sg9
L5L
sa(dp256
g1
g18
sg3
I01
sg9
L2L
sg4
V__dir__() -> list\u000adefault dir() implementation
p257
sa(dp258
g1
g8
sg3
I01
sg9
L5L
sa(dp259
g1
g22
sg3
I01
sg9
L5L
sa(dp260
g1
g24
sg3
I01
sg9
L2L
sg4
Vdefault object formatter
p261
sa(dp262
g1
g27
sg3
I01
sg9
L5L
sa(dp263
g1
g29
sg3
I01
sg9
L5L
sa(dp264
g1
g31
sg3
I01
sg9
L5L
sa(dp265
g1
g33
sg3
I01
sg9
L5L
sa(dp266
g1
g35
sg3
I01
sg9
L5L
sa(dp267
g1
g37
sg3
I01
sg9
L2L
sg4
VThis method is called when a class is subclassed.\u000a\u000aThe default implementation does nothing. It may be\u000aoverridden to extend subclasses.\u000a
p268
sa(dp269
g1
g40
sg3
I01
sg9
L5L
sa(dp270
g1
g42
sg3
I01
sg9
L5L
sa(dp271
g1
g46
sg3
I01
sg9
L5L
sa(dp272
g1
g48
sg3
I01
sg9
L2L
sg4
VCreate and return a new object.  See help(type) for accurate signature.
p273
sa(dp274
g1
g51
sg3
I01
sg9
L2L
sg4
Vhelper for pickle
p275
sa(dp276
g1
g54
sg3
I01
sg9
L2L
sg4
Vhelper for pickle
p277
sa(dp278
g1
g57
sg3
I01
sg9
L5L
sa(dp279
g1
g59
sg3
I01
sg9
L5L
sa(dp280
g1
g61
sg3
I01
sg9
L2L
sg4
V__sizeof__() -> int\u000asize of object in memory, in bytes
p281
sa(dp282
g1
g64
sg3
I01
sg9
L5L
sa(dp283
g1
g66
sg3
I01
sg9
L2L
sg4
VAbstract classes can override this to customize issubclass().\u000a\u000aThis is invoked early on by abc.ABCMeta.__subclasscheck__().\u000aIt should return True, False or NotImplemented.  If it returns\u000aNotImplemented, the normal algorithm is used.  Otherwise, it\u000aoverrides the normal algorithm (and the outcome is cached).\u000a
p284
sa(dp285
g1
g133
sg3
I01
sg9
L5L
sa(dp286
g1
g135
sg3
I01
sg9
L5L
sa(dp287
g1
g137
sg3
I01
sg9
L5L
sa(dp288
g1
g139
sg3
I01
sg9
L5L
sa(dp289
g1
g141
sg3
I01
sg9
L2L
sg4
VReturn a copy of the hash object.
p290
sa(dp291
g1
g144
sg3
I01
sg9
L2L
sg4
VReturn the digest value as a string of binary data.
p292
sa(dp293
g1
g147
sg3
I01
sg9
L5L
sa(dp294
g1
g149
sg3
I01
sg9
L2L
sg4
VReturn the digest value as a string of hexadecimal digits.
p295
sa(dp296
g1
g1
sg3
I01
sg9
L5L
sa(dp297
g1
g153
sg3
I01
sg9
L2L
sg4
VUpdate this hash object's state with the provided string.
p298
sasg4
Vsha3_512([string]) -> SHA3 object\u000a\u000aReturn a new SHA3 hash object with a hashbit length of 64 bytes.
p299
sa(dp300
g1
Vshake_128
p301
sg3
I01
sg9
L3L
sg5
(lp302
(dp303
g1
g14
sg3
I01
sg9
L5L
sa(dp304
g1
g18
sg3
I01
sg9
L2L
sg4
V__dir__() -> list\u000adefault dir() implementation
p305
sa(dp306
g1
g8
sg3
I01
sg9
L5L
sa(dp307
g1
g22
sg3
I01
sg9
L5L
sa(dp308
g1
g24
sg3
I01
sg9
L2L
sg4
Vdefault object formatter
p309
sa(dp310
g1
g27
sg3
I01
sg9
L5L
sa(dp311
g1
g29
sg3
I01
sg9
L5L
sa(dp312
g1
g31
sg3
I01
sg9
L5L
sa(dp313
g1
g33
sg3
I01
sg9
L5L
sa(dp314
g1
g35
sg3
I01
sg9
L5L
sa(dp315
g1
g37
sg3
I01
sg9
L2L
sg4
VThis method is called when a class is subclassed.\u000a\u000aThe default implementation does nothing. It may be\u000aoverridden to extend subclasses.\u000a
p316
sa(dp317
g1
g40
sg3
I01
sg9
L5L
sa(dp318
g1
g42
sg3
I01
sg9
L5L
sa(dp319
g1
g46
sg3
I01
sg9
L5L
sa(dp320
g1
g48
sg3
I01
sg9
L2L
sg4
VCreate and return a new object.  See help(type) for accurate signature.
p321
sa(dp322
g1
g51
sg3
I01
sg9
L2L
sg4
Vhelper for pickle
p323
sa(dp324
g1
g54
sg3
I01
sg9
L2L
sg4
Vhelper for pickle
p325
sa(dp326
g1
g57
sg3
I01
sg9
L5L
sa(dp327
g1
g59
sg3
I01
sg9
L5L
sa(dp328
g1
g61
sg3
I01
sg9
L2L
sg4
V__sizeof__() -> int\u000asize of object in memory, in bytes
p329
sa(dp330
g1
g64
sg3
I01
sg9
L5L
sa(dp331
g1
g66
sg3
I01
sg9
L2L
sg4
VAbstract classes can override this to customize issubclass().\u000a\u000aThis is invoked early on by abc.ABCMeta.__subclasscheck__().\u000aIt should return True, False or NotImplemented.  If it returns\u000aNotImplemented, the normal algorithm is used.  Otherwise, it\u000aoverrides the normal algorithm (and the outcome is cached).\u000a
p332
sa(dp333
g1
g133
sg3
I01
sg9
L5L
sa(dp334
g1
g135
sg3
I01
sg9
L5L
sa(dp335
g1
g137
sg3
I01
sg9
L5L
sa(dp336
g1
g139
sg3
I01
sg9
L5L
sa(dp337
g1
g141
sg3
I01
sg9
L2L
sg4
VReturn a copy of the hash object.
p338
sa(dp339
g1
g144
sg3
I01
sg9
L2L
sg4
VReturn the digest value as a string of binary data.
p340
sa(dp341
g1
g147
sg3
I01
sg9
L5L
sa(dp342
g1
g149
sg3
I01
sg9
L2L
sg4
VReturn the digest value as a string of hexadecimal digits.
p343
sa(dp344
g1
g1
sg3
I01
sg9
L5L
sa(dp345
g1
g153
sg3
I01
sg9
L2L
sg4
VUpdate this hash object's state with the provided string.
p346
sasg4
Vshake_128([string]) -> SHAKE object\u000a\u000aReturn a new SHAKE hash object.
p347
sa(dp348
g1
Vshake_256
p349
sg3
I01
sg9
L3L
sg5
(lp350
(dp351
g1
g14
sg3
I01
sg9
L5L
sa(dp352
g1
g18
sg3
I01
sg9
L2L
sg4
V__dir__() -> list\u000adefault dir() implementation
p353
sa(dp354
g1
g8
sg3
I01
sg9
L5L
sa(dp355
g1
g22
sg3
I01
sg9
L5L
sa(dp356
g1
g24
sg3
I01
sg9
L2L
sg4
Vdefault object formatter
p357
sa(dp358
g1
g27
sg3
I01
sg9
L5L
sa(dp359
g1
g29
sg3
I01
sg9
L5L
sa(dp360
g1
g31
sg3
I01
sg9
L5L
sa(dp361
g1
g33
sg3
I01
sg9
L5L
sa(dp362
g1
g35
sg3
I01
sg9
L5L
sa(dp363
g1
g37
sg3
I01
sg9
L2L
sg4
VThis method is called when a class is subclassed.\u000a\u000aThe default implementation does nothing. It may be\u000aoverridden to extend subclasses.\u000a
p364
sa(dp365
g1
g40
sg3
I01
sg9
L5L
sa(dp366
g1
g42
sg3
I01
sg9
L5L
sa(dp367
g1
g46
sg3
I01
sg9
L5L
sa(dp368
g1
g48
sg3
I01
sg9
L2L
sg4
VCreate and return a new object.  See help(type) for accurate signature.
p369
sa(dp370
g1
g51
sg3
I01
sg9
L2L
sg4
Vhelper for pickle
p371
sa(dp372
g1
g54
sg3
I01
sg9
L2L
sg4
Vhelper for pickle
p373
sa(dp374
g1
g57
sg3
I01
sg9
L5L
sa(dp375
g1
g59
sg3
I01
sg9
L5L
sa(dp376
g1
g61
sg3
I01
sg9
L2L
sg4
V__sizeof__() -> int\u000asize of object in memory, in bytes
p377
sa(dp378
g1
g64
sg3
I01
sg9
L5L
sa(dp379
g1
g66
sg3
I01
sg9
L2L
sg4
VAbstract classes can override this to customize issubclass().\u000a\u000aThis is invoked early on by abc.ABCMeta.__subclasscheck__().\u000aIt should return True, False or NotImplemented.  If it returns\u000aNotImplemented, the normal algorithm is used.  Otherwise, it\u000aoverrides the normal algorithm (and the outcome is cached).\u000a
p380
sa(dp381
g1
g133
sg3
I01
sg9
L5L
sa(dp382
g1
g135
sg3
I01
sg9
L5L
sa(dp383
g1
g137
sg3
I01
sg9
L5L
sa(dp384
g1
g139
sg3
I01
sg9
L5L
sa(dp385
g1
g141
sg3
I01
sg9
L2L
sg4
VReturn a copy of the hash object.
p386
sa(dp387
g1
g144
sg3
I01
sg9
L2L
sg4
VReturn the digest value as a string of binary data.
p388
sa(dp389
g1
g147
sg3
I01
sg9
L5L
sa(dp390
g1
g149
sg3
I01
sg9
L2L
sg4
VReturn the digest value as a string of hexadecimal digits.
p391
sa(dp392
g1
g1
sg3
I01
sg9
L5L
sa(dp393
g1
g153
sg3
I01
sg9
L2L
sg4
VUpdate this hash object's state with the provided string.
p394
sasg4
Vshake_256([string]) -> SHAKE object\u000a\u000aReturn a new SHAKE hash object.
p395
sasg9
L1L
s.