(dp0
Vname
p1
V_sha512
p2
sVis_builtin
p3
I01
sVdoc
p4
NsVchilds
p5
(lp6
(dp7
g1
VSHA384Type
p8
sg3
I01
sVtype
p9
L3L
sg5
(lp10
(dp11
g1
V__delattr__
p12
sg3
I01
sg9
L5L
sa(dp13
g1
V__dir__
p14
sg3
I01
sg9
L2L
sg4
V__dir__() -> list\u000adefault dir() implementation
p15
sa(dp16
g1
V__doc__
p17
sg3
I01
sg9
L5L
sa(dp18
g1
V__eq__
p19
sg3
I01
sg9
L5L
sa(dp20
g1
V__format__
p21
sg3
I01
sg9
L2L
sg4
Vdefault object formatter
p22
sa(dp23
g1
V__ge__
p24
sg3
I01
sg9
L5L
sa(dp25
g1
V__getattribute__
p26
sg3
I01
sg9
L5L
sa(dp27
g1
V__gt__
p28
sg3
I01
sg9
L5L
sa(dp29
g1
V__hash__
p30
sg3
I01
sg9
L5L
sa(dp31
g1
V__init__
p32
sg3
I01
sg9
L5L
sa(dp33
g1
V__init_subclass__
p34
sg3
I01
sg9
L2L
sg4
VThis method is called when a class is subclassed.\u000a\u000aThe default implementation does nothing. It may be\u000aoverridden to extend subclasses.\u000a
p35
sa(dp36
g1
V__le__
p37
sg3
I01
sg9
L5L
sa(dp38
g1
V__lt__
p39
sg3
I01
sg9
L5L
sa(dp40
g1
V__ne__
p41
sg3
I01
sg9
L5L
sa(dp42
g1
V__new__
p43
sg3
I01
sg9
L2L
sg4
VCreate and return a new object.  See help(type) for accurate signature.
p44
sa(dp45
g1
V__reduce__
p46
sg3
I01
sg9
L2L
sg4
Vhelper for pickle
p47
sa(dp48
g1
V__reduce_ex__
p49
sg3
I01
sg9
L2L
sg4
Vhelper for pickle
p50
sa(dp51
g1
V__repr__
p52
sg3
I01
sg9
L5L
sa(dp53
g1
V__setattr__
p54
sg3
I01
sg9
L5L
sa(dp55
g1
V__sizeof__
p56
sg3
I01
sg9
L2L
sg4
V__sizeof__() -> int\u000asize of object in memory, in bytes
p57
sa(dp58
g1
V__str__
p59
sg3
I01
sg9
L5L
sa(dp60
g1
V__subclasshook__
p61
sg3
I01
sg9
L2L
sg4
VAbstract classes can override this to customize issubclass().\u000a\u000aThis is invoked early on by abc.ABCMeta.__subclasscheck__().\u000aIt should return True, False or NotImplemented.  If it returns\u000aNotImplemented, the normal algorithm is used.  Otherwise, it\u000aoverrides the normal algorithm (and the outcome is cached).\u000a
p62
sa(dp63
g1
Vblock_size
p64
sg3
I01
sg9
L5L
sa(dp65
g1
Vcopy
p66
sg3
I01
sg9
L2L
sg4
VReturn a copy of the hash object.
p67
sa(dp68
g1
Vdigest
p69
sg3
I01
sg9
L2L
sg4
VReturn the digest value as a string of binary data.
p70
sa(dp71
g1
Vdigest_size
p72
sg3
I01
sg9
L5L
sa(dp73
g1
Vhexdigest
p74
sg3
I01
sg9
L2L
sg4
VReturn the digest value as a string of hexadecimal digits.
p75
sa(dp76
g1
g1
sg3
I01
sg9
L5L
sa(dp77
g1
Vupdate
p78
sg3
I01
sg9
L2L
sg4
VUpdate this hash object's state with the provided string.
p79
sasg4
Nsa(dp80
g1
VSHA512Type
p81
sg3
I01
sg9
L3L
sg5
(lp82
(dp83
g1
g12
sg3
I01
sg9
L5L
sa(dp84
g1
g14
sg3
I01
sg9
L2L
sg4
V__dir__() -> list\u000adefault dir() implementation
p85
sa(dp86
g1
g17
sg3
I01
sg9
L5L
sa(dp87
g1
g19
sg3
I01
sg9
L5L
sa(dp88
g1
g21
sg3
I01
sg9
L2L
sg4
Vdefault object formatter
p89
sa(dp90
g1
g24
sg3
I01
sg9
L5L
sa(dp91
g1
g26
sg3
I01
sg9
L5L
sa(dp92
g1
g28
sg3
I01
sg9
L5L
sa(dp93
g1
g30
sg3
I01
sg9
L5L
sa(dp94
g1
g32
sg3
I01
sg9
L5L
sa(dp95
g1
g34
sg3
I01
sg9
L2L
sg4
VThis method is called when a class is subclassed.\u000a\u000aThe default implementation does nothing. It may be\u000aoverridden to extend subclasses.\u000a
p96
sa(dp97
g1
g37
sg3
I01
sg9
L5L
sa(dp98
g1
g39
sg3
I01
sg9
L5L
sa(dp99
g1
g41
sg3
I01
sg9
L5L
sa(dp100
g1
g43
sg3
I01
sg9
L2L
sg4
VCreate and return a new object.  See help(type) for accurate signature.
p101
sa(dp102
g1
g46
sg3
I01
sg9
L2L
sg4
Vhelper for pickle
p103
sa(dp104
g1
g49
sg3
I01
sg9
L2L
sg4
Vhelper for pickle
p105
sa(dp106
g1
g52
sg3
I01
sg9
L5L
sa(dp107
g1
g54
sg3
I01
sg9
L5L
sa(dp108
g1
g56
sg3
I01
sg9
L2L
sg4
V__sizeof__() -> int\u000asize of object in memory, in bytes
p109
sa(dp110
g1
g59
sg3
I01
sg9
L5L
sa(dp111
g1
g61
sg3
I01
sg9
L2L
sg4
VAbstract classes can override this to customize issubclass().\u000a\u000aThis is invoked early on by abc.ABCMeta.__subclasscheck__().\u000aIt should return True, False or NotImplemented.  If it returns\u000aNotImplemented, the normal algorithm is used.  Otherwise, it\u000aoverrides the normal algorithm (and the outcome is cached).\u000a
p112
sa(dp113
g1
g64
sg3
I01
sg9
L5L
sa(dp114
g1
g66
sg3
I01
sg9
L2L
sg4
VReturn a copy of the hash object.
p115
sa(dp116
g1
g69
sg3
I01
sg9
L2L
sg4
VReturn the digest value as a string of binary data.
p117
sa(dp118
g1
g72
sg3
I01
sg9
L5L
sa(dp119
g1
g74
sg3
I01
sg9
L2L
sg4
VReturn the digest value as a string of hexadecimal digits.
p120
sa(dp121
g1
g1
sg3
I01
sg9
L5L
sa(dp122
g1
g78
sg3
I01
sg9
L2L
sg4
VUpdate this hash object's state with the provided string.
p123
sasg4
Nsa(dp124
g1
g17
sg3
I01
sg9
L5L
sa(dp125
g1
V__loader__
p126
sg3
I01
sg9
L3L
sg5
(lp127
(dp128
g1
g12
sg3
I01
sg9
L5L
sa(dp129
g1
V__dict__
p130
sg3
I01
sg9
L5L
sa(dp131
g1
g14
sg3
I01
sg9
L2L
sg4
V__dir__() -> list\u000adefault dir() implementation
p132
sa(dp133
g1
g17
sg3
I01
sg9
L5L
sa(dp134
g1
g19
sg3
I01
sg9
L5L
sa(dp135
g1
g21
sg3
I01
sg9
L2L
sg4
Vdefault object formatter
p136
sa(dp137
g1
g24
sg3
I01
sg9
L5L
sa(dp138
g1
g26
sg3
I01
sg9
L5L
sa(dp139
g1
g28
sg3
I01
sg9
L5L
sa(dp140
g1
g30
sg3
I01
sg9
L5L
sa(dp141
g1
g32
sg3
I01
sg9
L5L
sa(dp142
g1
g34
sg3
I01
sg9
L2L
sg4
VThis method is called when a class is subclassed.\u000a\u000aThe default implementation does nothing. It may be\u000aoverridden to extend subclasses.\u000a
p143
sa(dp144
g1
g37
sg3
I01
sg9
L5L
sa(dp145
g1
g39
sg3
I01
sg9
L5L
sa(dp146
g1
V__module__
p147
sg3
I01
sg9
L5L
sa(dp148
g1
g41
sg3
I01
sg9
L5L
sa(dp149
g1
g43
sg3
I01
sg9
L2L
sg4
VCreate and return a new object.  See help(type) for accurate signature.
p150
sa(dp151
g1
g46
sg3
I01
sg9
L2L
sg4
Vhelper for pickle
p152
sa(dp153
g1
g49
sg3
I01
sg9
L2L
sg4
Vhelper for pickle
p154
sa(dp155
g1
g52
sg3
I01
sg9
L5L
sa(dp156
g1
g54
sg3
I01
sg9
L5L
sa(dp157
g1
g56
sg3
I01
sg9
L2L
sg4
V__sizeof__() -> int\u000asize of object in memory, in bytes
p158
sa(dp159
g1
g59
sg3
I01
sg9
L5L
sa(dp160
g1
g61
sg3
I01
sg9
L2L
sg4
VAbstract classes can override this to customize issubclass().\u000a\u000aThis is invoked early on by abc.ABCMeta.__subclasscheck__().\u000aIt should return True, False or NotImplemented.  If it returns\u000aNotImplemented, the normal algorithm is used.  Otherwise, it\u000aoverrides the normal algorithm (and the outcome is cached).\u000a
p161
sa(dp162
g1
V__weakref__
p163
sg3
I01
sg9
L5L
sa(dp164
g1
Vcreate_module
p165
sg3
I01
sg9
L5L
sa(dp166
g1
Vexec_module
p167
sg3
I01
sg9
L5L
sa(dp168
g1
Vfind_module
p169
sg3
I01
sg9
L5L
sa(dp170
g1
Vfind_spec
p171
sg3
I01
sg9
L5L
sa(dp172
g1
Vget_code
p173
sg3
I01
sg9
L5L
sa(dp174
g1
Vget_source
p175
sg3
I01
sg9
L5L
sa(dp176
g1
Vis_package
p177
sg3
I01
sg9
L5L
sa(dp178
g1
Vload_module
p179
sg3
I01
sg9
L5L
sa(dp180
g1
Vmodule_repr
p181
sg3
I01
sg9
L5L
sasg4
VMeta path import for built-in modules.\u000a\u000a    All methods are either class or static methods to avoid the need to\u000a    instantiate the class.\u000a\u000a    
p182
sa(dp183
g1
V__name__
p184
sg3
I01
sg9
L5L
sa(dp185
g1
V__package__
p186
sg3
I01
sg9
L5L
sa(dp187
g1
V__spec__
p188
sg3
I01
sg9
L5L
sa(dp189
g1
Vsha384
p190
sg3
I01
sg9
L2L
sg4
VReturn a new SHA-384 hash object; optionally initialized with a string.
p191
sa(dp192
g1
Vsha512
p193
sg3
I01
sg9
L2L
sg4
VReturn a new SHA-512 hash object; optionally initialized with a string.
p194
sasg9
L1L
s.