(dp0
Vname
p1
V_signal
p2
sVis_builtin
p3
I01
sVdoc
p4
VThis module provides mechanisms to use signal handlers in Python.\u000a\u000aFunctions:\u000a\u000aalarm() -- cause SIGALRM after a specified time [Unix only]\u000asetitimer() -- cause a signal (described below) after a specified\u000a               float time and the timer may restart then [Unix only]\u000agetitimer() -- get current value of timer [Unix only]\u000asignal() -- set the action for a given signal\u000agetsignal() -- get the signal action for a given signal\u000apause() -- wait until a signal arrives [Unix only]\u000adefault_int_handler() -- default SIGINT handler\u000a\u000asignal constants:\u000aSIG_DFL -- used to refer to the system default handler\u000aSIG_IGN -- used to ignore the signal\u000aNSIG -- number of defined signals\u000aSIGINT, SIGTERM, etc. -- signal numbers\u000a\u000aitimer constants:\u000aITIMER_REAL -- decrements in real time, and delivers SIGALRM upon\u000a               expiration\u000aITIMER_VIRTUAL -- decrements only when the process is executing,\u000a               and delivers SIGVTALRM upon expiration\u000aITIMER_PROF -- decrements both when the process is executing and\u000a               when the system is executing on behalf of the process.\u000a               Coupled with ITIMER_VIRTUAL, this timer is usually\u000a               used to profile the time spent by the application\u000a               in user and kernel space. SIGPROF is delivered upon\u000a               expiration.\u000a\u000a\u000a*** IMPORTANT NOTICE ***\u000aA signal handler function is called with two arguments:\u000athe first is the signal number, the second is the interrupted stack frame.
p5
sVchilds
p6
(lp7
(dp8
g1
VCTRL_BREAK_EVENT
p9
sg3
I01
sVtype
p10
L5L
sa(dp11
g1
VCTRL_C_EVENT
p12
sg3
I01
sg10
L5L
sa(dp13
g1
VNSIG
p14
sg3
I01
sg10
L5L
sa(dp15
g1
VSIGABRT
p16
sg3
I01
sg10
L5L
sa(dp17
g1
VSIGBREAK
p18
sg3
I01
sg10
L5L
sa(dp19
g1
VSIGFPE
p20
sg3
I01
sg10
L5L
sa(dp21
g1
VSIGILL
p22
sg3
I01
sg10
L5L
sa(dp23
g1
VSIGINT
p24
sg3
I01
sg10
L5L
sa(dp25
g1
VSIGSEGV
p26
sg3
I01
sg10
L5L
sa(dp27
g1
VSIGTERM
p28
sg3
I01
sg10
L5L
sa(dp29
g1
VSIG_DFL
p30
sg3
I01
sg10
L5L
sa(dp31
g1
VSIG_IGN
p32
sg3
I01
sg10
L5L
sa(dp33
g1
V__doc__
p34
sg3
I01
sg10
L5L
sa(dp35
g1
V__loader__
p36
sg3
I01
sg10
L3L
sg6
(lp37
(dp38
g1
V__delattr__
p39
sg3
I01
sg10
L5L
sa(dp40
g1
V__dict__
p41
sg3
I01
sg10
L5L
sa(dp42
g1
V__dir__
p43
sg3
I01
sg10
L2L
sg4
V__dir__() -> list\u000adefault dir() implementation
p44
sa(dp45
g1
g34
sg3
I01
sg10
L5L
sa(dp46
g1
V__eq__
p47
sg3
I01
sg10
L5L
sa(dp48
g1
V__format__
p49
sg3
I01
sg10
L2L
sg4
Vdefault object formatter
p50
sa(dp51
g1
V__ge__
p52
sg3
I01
sg10
L5L
sa(dp53
g1
V__getattribute__
p54
sg3
I01
sg10
L5L
sa(dp55
g1
V__gt__
p56
sg3
I01
sg10
L5L
sa(dp57
g1
V__hash__
p58
sg3
I01
sg10
L5L
sa(dp59
g1
V__init__
p60
sg3
I01
sg10
L5L
sa(dp61
g1
V__init_subclass__
p62
sg3
I01
sg10
L2L
sg4
VThis method is called when a class is subclassed.\u000a\u000aThe default implementation does nothing. It may be\u000aoverridden to extend subclasses.\u000a
p63
sa(dp64
g1
V__le__
p65
sg3
I01
sg10
L5L
sa(dp66
g1
V__lt__
p67
sg3
I01
sg10
L5L
sa(dp68
g1
V__module__
p69
sg3
I01
sg10
L5L
sa(dp70
g1
V__ne__
p71
sg3
I01
sg10
L5L
sa(dp72
g1
V__new__
p73
sg3
I01
sg10
L2L
sg4
VCreate and return a new object.  See help(type) for accurate signature.
p74
sa(dp75
g1
V__reduce__
p76
sg3
I01
sg10
L2L
sg4
Vhelper for pickle
p77
sa(dp78
g1
V__reduce_ex__
p79
sg3
I01
sg10
L2L
sg4
Vhelper for pickle
p80
sa(dp81
g1
V__repr__
p82
sg3
I01
sg10
L5L
sa(dp83
g1
V__setattr__
p84
sg3
I01
sg10
L5L
sa(dp85
g1
V__sizeof__
p86
sg3
I01
sg10
L2L
sg4
V__sizeof__() -> int\u000asize of object in memory, in bytes
p87
sa(dp88
g1
V__str__
p89
sg3
I01
sg10
L5L
sa(dp90
g1
V__subclasshook__
p91
sg3
I01
sg10
L2L
sg4
VAbstract classes can override this to customize issubclass().\u000a\u000aThis is invoked early on by abc.ABCMeta.__subclasscheck__().\u000aIt should return True, False or NotImplemented.  If it returns\u000aNotImplemented, the normal algorithm is used.  Otherwise, it\u000aoverrides the normal algorithm (and the outcome is cached).\u000a
p92
sa(dp93
g1
V__weakref__
p94
sg3
I01
sg10
L5L
sa(dp95
g1
Vcreate_module
p96
sg3
I01
sg10
L5L
sa(dp97
g1
Vexec_module
p98
sg3
I01
sg10
L5L
sa(dp99
g1
Vfind_module
p100
sg3
I01
sg10
L5L
sa(dp101
g1
Vfind_spec
p102
sg3
I01
sg10
L5L
sa(dp103
g1
Vget_code
p104
sg3
I01
sg10
L5L
sa(dp105
g1
Vget_source
p106
sg3
I01
sg10
L5L
sa(dp107
g1
Vis_package
p108
sg3
I01
sg10
L5L
sa(dp109
g1
Vload_module
p110
sg3
I01
sg10
L5L
sa(dp111
g1
Vmodule_repr
p112
sg3
I01
sg10
L5L
sasg4
VMeta path import for built-in modules.\u000a\u000a    All methods are either class or static methods to avoid the need to\u000a    instantiate the class.\u000a\u000a    
p113
sa(dp114
g1
V__name__
p115
sg3
I01
sg10
L5L
sa(dp116
g1
V__package__
p117
sg3
I01
sg10
L5L
sa(dp118
g1
V__spec__
p119
sg3
I01
sg10
L5L
sa(dp120
g1
Vdefault_int_handler
p121
sg3
I01
sg10
L2L
sg4
Vdefault_int_handler(...)\u000a\u000aThe default handler for SIGINT installed by Python.\u000aIt raises KeyboardInterrupt.
p122
sa(dp123
g1
Vgetsignal
p124
sg3
I01
sg10
L2L
sg4
VReturn the current action for the given signal.\u000a\u000aThe return value can be:\u000a  SIG_IGN -- if the signal is being ignored\u000a  SIG_DFL -- if the default action for the signal is in effect\u000a  None    -- if an unknown handler is in effect\u000a  anything else -- the callable Python object used as a handler
p125
sa(dp126
g1
Vset_wakeup_fd
p127
sg3
I01
sg10
L2L
sg4
Vset_wakeup_fd(fd) -> fd\u000a\u000aSets the fd to be written to (with the signal number) when a signal\u000acomes in.  A library can use this to wakeup select or poll.\u000aThe previous fd or -1 is returned.\u000a\u000aThe fd must be non-blocking.
p128
sa(dp129
g1
Vsignal
p130
sg3
I01
sg10
L2L
sg4
VSet the action for the given signal.\u000a\u000aThe action can be SIG_DFL, SIG_IGN, or a callable Python object.\u000aThe previous action is returned.  See getsignal() for possible return values.\u000a\u000a*** IMPORTANT NOTICE ***\u000aA signal handler function is called with two arguments:\u000athe first is the signal number, the second is the interrupted stack frame.
p131
sasg10
L1L
s.