(dp0
Vname
p1
V_sre
p2
sVis_builtin
p3
I01
sVdoc
p4
NsVchilds
p5
(lp6
(dp7
g1
VCODESIZE
p8
sg3
I01
sVtype
p9
L5L
sa(dp10
g1
VMAGIC
p11
sg3
I01
sg9
L5L
sa(dp12
g1
VMAXGROUPS
p13
sg3
I01
sg9
L5L
sa(dp14
g1
VMAXREPEAT
p15
sg3
I01
sg9
L5L
sa(dp16
g1
V__doc__
p17
sg3
I01
sg9
L5L
sa(dp18
g1
V__loader__
p19
sg3
I01
sg9
L3L
sg5
(lp20
(dp21
g1
V__delattr__
p22
sg3
I01
sg9
L5L
sa(dp23
g1
V__dict__
p24
sg3
I01
sg9
L5L
sa(dp25
g1
V__dir__
p26
sg3
I01
sg9
L2L
sg4
V__dir__() -> list\u000adefault dir() implementation
p27
sa(dp28
g1
g17
sg3
I01
sg9
L5L
sa(dp29
g1
V__eq__
p30
sg3
I01
sg9
L5L
sa(dp31
g1
V__format__
p32
sg3
I01
sg9
L2L
sg4
Vdefault object formatter
p33
sa(dp34
g1
V__ge__
p35
sg3
I01
sg9
L5L
sa(dp36
g1
V__getattribute__
p37
sg3
I01
sg9
L5L
sa(dp38
g1
V__gt__
p39
sg3
I01
sg9
L5L
sa(dp40
g1
V__hash__
p41
sg3
I01
sg9
L5L
sa(dp42
g1
V__init__
p43
sg3
I01
sg9
L5L
sa(dp44
g1
V__init_subclass__
p45
sg3
I01
sg9
L2L
sg4
VThis method is called when a class is subclassed.\u000a\u000aThe default implementation does nothing. It may be\u000aoverridden to extend subclasses.\u000a
p46
sa(dp47
g1
V__le__
p48
sg3
I01
sg9
L5L
sa(dp49
g1
V__lt__
p50
sg3
I01
sg9
L5L
sa(dp51
g1
V__module__
p52
sg3
I01
sg9
L5L
sa(dp53
g1
V__ne__
p54
sg3
I01
sg9
L5L
sa(dp55
g1
V__new__
p56
sg3
I01
sg9
L2L
sg4
VCreate and return a new object.  See help(type) for accurate signature.
p57
sa(dp58
g1
V__reduce__
p59
sg3
I01
sg9
L2L
sg4
Vhelper for pickle
p60
sa(dp61
g1
V__reduce_ex__
p62
sg3
I01
sg9
L2L
sg4
Vhelper for pickle
p63
sa(dp64
g1
V__repr__
p65
sg3
I01
sg9
L5L
sa(dp66
g1
V__setattr__
p67
sg3
I01
sg9
L5L
sa(dp68
g1
V__sizeof__
p69
sg3
I01
sg9
L2L
sg4
V__sizeof__() -> int\u000asize of object in memory, in bytes
p70
sa(dp71
g1
V__str__
p72
sg3
I01
sg9
L5L
sa(dp73
g1
V__subclasshook__
p74
sg3
I01
sg9
L2L
sg4
VAbstract classes can override this to customize issubclass().\u000a\u000aThis is invoked early on by abc.ABCMeta.__subclasscheck__().\u000aIt should return True, False or NotImplemented.  If it returns\u000aNotImplemented, the normal algorithm is used.  Otherwise, it\u000aoverrides the normal algorithm (and the outcome is cached).\u000a
p75
sa(dp76
g1
V__weakref__
p77
sg3
I01
sg9
L5L
sa(dp78
g1
Vcreate_module
p79
sg3
I01
sg9
L5L
sa(dp80
g1
Vexec_module
p81
sg3
I01
sg9
L5L
sa(dp82
g1
Vfind_module
p83
sg3
I01
sg9
L5L
sa(dp84
g1
Vfind_spec
p85
sg3
I01
sg9
L5L
sa(dp86
g1
Vget_code
p87
sg3
I01
sg9
L5L
sa(dp88
g1
Vget_source
p89
sg3
I01
sg9
L5L
sa(dp90
g1
Vis_package
p91
sg3
I01
sg9
L5L
sa(dp92
g1
Vload_module
p93
sg3
I01
sg9
L5L
sa(dp94
g1
Vmodule_repr
p95
sg3
I01
sg9
L5L
sasg4
VMeta path import for built-in modules.\u000a\u000a    All methods are either class or static methods to avoid the need to\u000a    instantiate the class.\u000a\u000a    
p96
sa(dp97
g1
V__name__
p98
sg3
I01
sg9
L5L
sa(dp99
g1
V__package__
p100
sg3
I01
sg9
L5L
sa(dp101
g1
V__spec__
p102
sg3
I01
sg9
L5L
sa(dp103
g1
Vcompile
p104
sg3
I01
sg9
L2L
sg4
Nsa(dp105
g1
Vcopyright
p106
sg3
I01
sg9
L5L
sa(dp107
g1
Vgetcodesize
p108
sg3
I01
sg9
L2L
sg4
Nsa(dp109
g1
Vgetlower
p110
sg3
I01
sg9
L2L
sg4
Nsasg9
L1L
s.