(dp0
Vname
p1
V_stat
p2
sVis_builtin
p3
I01
sVdoc
p4
VS_IFMT_: file type bits\u000aS_IFDIR: directory\u000aS_IFCHR: character device\u000aS_IFBLK: block device\u000aS_IFREG: regular file\u000aS_IFIFO: fifo (named pipe)\u000aS_IFLNK: symbolic link\u000aS_IFSOCK: socket file\u000aS_IFDOOR: door\u000aS_IFPORT: event port\u000aS_IFWHT: whiteout\u000a\u000aS_ISUID: set UID bit\u000aS_ISGID: set GID bit\u000aS_ENFMT: file locking enforcement\u000aS_ISVTX: sticky bit\u000aS_IREAD: Unix V7 synonym for S_IRUSR\u000aS_IWRITE: Unix V7 synonym for S_IWUSR\u000aS_IEXEC: Unix V7 synonym for S_IXUSR\u000aS_IRWXU: mask for owner permissions\u000aS_IRUSR: read by owner\u000aS_IWUSR: write by owner\u000aS_IXUSR: execute by owner\u000aS_IRWXG: mask for group permissions\u000aS_IRGRP: read by group\u000aS_IWGRP: write by group\u000aS_IXGRP: execute by group\u000aS_IRWXO: mask for others (not in group) permissions\u000aS_IROTH: read by others\u000aS_IWOTH: write by others\u000aS_IXOTH: execute by others\u000a\u000aUF_NODUMP: do not dump file\u000aUF_IMMUTABLE: file may not be changed\u000aUF_APPEND: file may only be appended to\u000aUF_OPAQUE: directory is opaque when viewed through a union stack\u000aUF_NOUNLINK: file may not be renamed or deleted\u000aUF_COMPRESSED: OS X: file is hfs-compressed\u000aUF_HIDDEN: OS X: file should not be displayed\u000aSF_ARCHIVED: file may be archived\u000aSF_IMMUTABLE: file may not be changed\u000aSF_APPEND: file may only be appended to\u000aSF_NOUNLINK: file may not be renamed or deleted\u000aSF_SNAPSHOT: file is a snapshot file\u000a\u000aST_MODE\u000aST_INO\u000aST_DEV\u000aST_NLINK\u000aST_UID\u000aST_GID\u000aST_SIZE\u000aST_ATIME\u000aST_MTIME\u000aST_CTIME\u000a\u000aFILE_ATTRIBUTE_*: Windows file attribute constants\u000a                   (only present on Windows)\u000a
p5
sVchilds
p6
(lp7
(dp8
g1
VFILE_ATTRIBUTE_ARCHIVE
p9
sg3
I01
sVtype
p10
L5L
sa(dp11
g1
VFILE_ATTRIBUTE_COMPRESSED
p12
sg3
I01
sg10
L5L
sa(dp13
g1
VFILE_ATTRIBUTE_DEVICE
p14
sg3
I01
sg10
L5L
sa(dp15
g1
VFILE_ATTRIBUTE_DIRECTORY
p16
sg3
I01
sg10
L5L
sa(dp17
g1
VFILE_ATTRIBUTE_ENCRYPTED
p18
sg3
I01
sg10
L5L
sa(dp19
g1
VFILE_ATTRIBUTE_HIDDEN
p20
sg3
I01
sg10
L5L
sa(dp21
g1
VFILE_ATTRIBUTE_INTEGRITY_STREAM
p22
sg3
I01
sg10
L5L
sa(dp23
g1
VFILE_ATTRIBUTE_NORMAL
p24
sg3
I01
sg10
L5L
sa(dp25
g1
VFILE_ATTRIBUTE_NOT_CONTENT_INDEXED
p26
sg3
I01
sg10
L5L
sa(dp27
g1
VFILE_ATTRIBUTE_NO_SCRUB_DATA
p28
sg3
I01
sg10
L5L
sa(dp29
g1
VFILE_ATTRIBUTE_OFFLINE
p30
sg3
I01
sg10
L5L
sa(dp31
g1
VFILE_ATTRIBUTE_READONLY
p32
sg3
I01
sg10
L5L
sa(dp33
g1
VFILE_ATTRIBUTE_REPARSE_POINT
p34
sg3
I01
sg10
L5L
sa(dp35
g1
VFILE_ATTRIBUTE_SPARSE_FILE
p36
sg3
I01
sg10
L5L
sa(dp37
g1
VFILE_ATTRIBUTE_SYSTEM
p38
sg3
I01
sg10
L5L
sa(dp39
g1
VFILE_ATTRIBUTE_TEMPORARY
p40
sg3
I01
sg10
L5L
sa(dp41
g1
VFILE_ATTRIBUTE_VIRTUAL
p42
sg3
I01
sg10
L5L
sa(dp43
g1
VSF_APPEND
p44
sg3
I01
sg10
L5L
sa(dp45
g1
VSF_ARCHIVED
p46
sg3
I01
sg10
L5L
sa(dp47
g1
VSF_IMMUTABLE
p48
sg3
I01
sg10
L5L
sa(dp49
g1
VSF_NOUNLINK
p50
sg3
I01
sg10
L5L
sa(dp51
g1
VSF_SNAPSHOT
p52
sg3
I01
sg10
L5L
sa(dp53
g1
VST_ATIME
p54
sg3
I01
sg10
L5L
sa(dp55
g1
VST_CTIME
p56
sg3
I01
sg10
L5L
sa(dp57
g1
VST_DEV
p58
sg3
I01
sg10
L5L
sa(dp59
g1
VST_GID
p60
sg3
I01
sg10
L5L
sa(dp61
g1
VST_INO
p62
sg3
I01
sg10
L5L
sa(dp63
g1
VST_MODE
p64
sg3
I01
sg10
L5L
sa(dp65
g1
VST_MTIME
p66
sg3
I01
sg10
L5L
sa(dp67
g1
VST_NLINK
p68
sg3
I01
sg10
L5L
sa(dp69
g1
VST_SIZE
p70
sg3
I01
sg10
L5L
sa(dp71
g1
VST_UID
p72
sg3
I01
sg10
L5L
sa(dp73
g1
VS_ENFMT
p74
sg3
I01
sg10
L5L
sa(dp75
g1
VS_IEXEC
p76
sg3
I01
sg10
L5L
sa(dp77
g1
VS_IFBLK
p78
sg3
I01
sg10
L5L
sa(dp79
g1
VS_IFCHR
p80
sg3
I01
sg10
L5L
sa(dp81
g1
VS_IFDIR
p82
sg3
I01
sg10
L5L
sa(dp83
g1
VS_IFDOOR
p84
sg3
I01
sg10
L5L
sa(dp85
g1
VS_IFIFO
p86
sg3
I01
sg10
L5L
sa(dp87
g1
VS_IFLNK
p88
sg3
I01
sg10
L5L
sa(dp89
g1
VS_IFMT
p90
sg3
I01
sg10
L2L
sg4
VReturn the portion of the file's mode that describes the file type.
p91
sa(dp92
g1
VS_IFPORT
p93
sg3
I01
sg10
L5L
sa(dp94
g1
VS_IFREG
p95
sg3
I01
sg10
L5L
sa(dp96
g1
VS_IFSOCK
p97
sg3
I01
sg10
L5L
sa(dp98
g1
VS_IFWHT
p99
sg3
I01
sg10
L5L
sa(dp100
g1
VS_IMODE
p101
sg3
I01
sg10
L2L
sg4
VReturn the portion of the file's mode that can be set by os.chmod().
p102
sa(dp103
g1
VS_IREAD
p104
sg3
I01
sg10
L5L
sa(dp105
g1
VS_IRGRP
p106
sg3
I01
sg10
L5L
sa(dp107
g1
VS_IROTH
p108
sg3
I01
sg10
L5L
sa(dp109
g1
VS_IRUSR
p110
sg3
I01
sg10
L5L
sa(dp111
g1
VS_IRWXG
p112
sg3
I01
sg10
L5L
sa(dp113
g1
VS_IRWXO
p114
sg3
I01
sg10
L5L
sa(dp115
g1
VS_IRWXU
p116
sg3
I01
sg10
L5L
sa(dp117
g1
VS_ISBLK
p118
sg3
I01
sg10
L2L
sg4
VS_ISBLK(mode) -> bool\u000a\u000aReturn True if mode is from a block special device file.
p119
sa(dp120
g1
VS_ISCHR
p121
sg3
I01
sg10
L2L
sg4
VS_ISCHR(mode) -> bool\u000a\u000aReturn True if mode is from a character special device file.
p122
sa(dp123
g1
VS_ISDIR
p124
sg3
I01
sg10
L2L
sg4
VS_ISDIR(mode) -> bool\u000a\u000aReturn True if mode is from a directory.
p125
sa(dp126
g1
VS_ISDOOR
p127
sg3
I01
sg10
L2L
sg4
VS_ISDOOR(mode) -> bool\u000a\u000aReturn True if mode is from a door.
p128
sa(dp129
g1
VS_ISFIFO
p130
sg3
I01
sg10
L2L
sg4
VS_ISFIFO(mode) -> bool\u000a\u000aReturn True if mode is from a FIFO (named pipe).
p131
sa(dp132
g1
VS_ISGID
p133
sg3
I01
sg10
L5L
sa(dp134
g1
VS_ISLNK
p135
sg3
I01
sg10
L2L
sg4
VS_ISLNK(mode) -> bool\u000a\u000aReturn True if mode is from a symbolic link.
p136
sa(dp137
g1
VS_ISPORT
p138
sg3
I01
sg10
L2L
sg4
VS_ISPORT(mode) -> bool\u000a\u000aReturn True if mode is from an event port.
p139
sa(dp140
g1
VS_ISREG
p141
sg3
I01
sg10
L2L
sg4
VS_ISREG(mode) -> bool\u000a\u000aReturn True if mode is from a regular file.
p142
sa(dp143
g1
VS_ISSOCK
p144
sg3
I01
sg10
L2L
sg4
VS_ISSOCK(mode) -> bool\u000a\u000aReturn True if mode is from a socket.
p145
sa(dp146
g1
VS_ISUID
p147
sg3
I01
sg10
L5L
sa(dp148
g1
VS_ISVTX
p149
sg3
I01
sg10
L5L
sa(dp150
g1
VS_ISWHT
p151
sg3
I01
sg10
L2L
sg4
VS_ISWHT(mode) -> bool\u000a\u000aReturn True if mode is from a whiteout.
p152
sa(dp153
g1
VS_IWGRP
p154
sg3
I01
sg10
L5L
sa(dp155
g1
VS_IWOTH
p156
sg3
I01
sg10
L5L
sa(dp157
g1
VS_IWRITE
p158
sg3
I01
sg10
L5L
sa(dp159
g1
VS_IWUSR
p160
sg3
I01
sg10
L5L
sa(dp161
g1
VS_IXGRP
p162
sg3
I01
sg10
L5L
sa(dp163
g1
VS_IXOTH
p164
sg3
I01
sg10
L5L
sa(dp165
g1
VS_IXUSR
p166
sg3
I01
sg10
L5L
sa(dp167
g1
VUF_APPEND
p168
sg3
I01
sg10
L5L
sa(dp169
g1
VUF_COMPRESSED
p170
sg3
I01
sg10
L5L
sa(dp171
g1
VUF_HIDDEN
p172
sg3
I01
sg10
L5L
sa(dp173
g1
VUF_IMMUTABLE
p174
sg3
I01
sg10
L5L
sa(dp175
g1
VUF_NODUMP
p176
sg3
I01
sg10
L5L
sa(dp177
g1
VUF_NOUNLINK
p178
sg3
I01
sg10
L5L
sa(dp179
g1
VUF_OPAQUE
p180
sg3
I01
sg10
L5L
sa(dp181
g1
V__doc__
p182
sg3
I01
sg10
L5L
sa(dp183
g1
V__loader__
p184
sg3
I01
sg10
L3L
sg6
(lp185
(dp186
g1
V__delattr__
p187
sg3
I01
sg10
L5L
sa(dp188
g1
V__dict__
p189
sg3
I01
sg10
L5L
sa(dp190
g1
V__dir__
p191
sg3
I01
sg10
L2L
sg4
V__dir__() -> list\u000adefault dir() implementation
p192
sa(dp193
g1
g182
sg3
I01
sg10
L5L
sa(dp194
g1
V__eq__
p195
sg3
I01
sg10
L5L
sa(dp196
g1
V__format__
p197
sg3
I01
sg10
L2L
sg4
Vdefault object formatter
p198
sa(dp199
g1
V__ge__
p200
sg3
I01
sg10
L5L
sa(dp201
g1
V__getattribute__
p202
sg3
I01
sg10
L5L
sa(dp203
g1
V__gt__
p204
sg3
I01
sg10
L5L
sa(dp205
g1
V__hash__
p206
sg3
I01
sg10
L5L
sa(dp207
g1
V__init__
p208
sg3
I01
sg10
L5L
sa(dp209
g1
V__init_subclass__
p210
sg3
I01
sg10
L2L
sg4
VThis method is called when a class is subclassed.\u000a\u000aThe default implementation does nothing. It may be\u000aoverridden to extend subclasses.\u000a
p211
sa(dp212
g1
V__le__
p213
sg3
I01
sg10
L5L
sa(dp214
g1
V__lt__
p215
sg3
I01
sg10
L5L
sa(dp216
g1
V__module__
p217
sg3
I01
sg10
L5L
sa(dp218
g1
V__ne__
p219
sg3
I01
sg10
L5L
sa(dp220
g1
V__new__
p221
sg3
I01
sg10
L2L
sg4
VCreate and return a new object.  See help(type) for accurate signature.
p222
sa(dp223
g1
V__reduce__
p224
sg3
I01
sg10
L2L
sg4
Vhelper for pickle
p225
sa(dp226
g1
V__reduce_ex__
p227
sg3
I01
sg10
L2L
sg4
Vhelper for pickle
p228
sa(dp229
g1
V__repr__
p230
sg3
I01
sg10
L5L
sa(dp231
g1
V__setattr__
p232
sg3
I01
sg10
L5L
sa(dp233
g1
V__sizeof__
p234
sg3
I01
sg10
L2L
sg4
V__sizeof__() -> int\u000asize of object in memory, in bytes
p235
sa(dp236
g1
V__str__
p237
sg3
I01
sg10
L5L
sa(dp238
g1
V__subclasshook__
p239
sg3
I01
sg10
L2L
sg4
VAbstract classes can override this to customize issubclass().\u000a\u000aThis is invoked early on by abc.ABCMeta.__subclasscheck__().\u000aIt should return True, False or NotImplemented.  If it returns\u000aNotImplemented, the normal algorithm is used.  Otherwise, it\u000aoverrides the normal algorithm (and the outcome is cached).\u000a
p240
sa(dp241
g1
V__weakref__
p242
sg3
I01
sg10
L5L
sa(dp243
g1
Vcreate_module
p244
sg3
I01
sg10
L5L
sa(dp245
g1
Vexec_module
p246
sg3
I01
sg10
L5L
sa(dp247
g1
Vfind_module
p248
sg3
I01
sg10
L5L
sa(dp249
g1
Vfind_spec
p250
sg3
I01
sg10
L5L
sa(dp251
g1
Vget_code
p252
sg3
I01
sg10
L5L
sa(dp253
g1
Vget_source
p254
sg3
I01
sg10
L5L
sa(dp255
g1
Vis_package
p256
sg3
I01
sg10
L5L
sa(dp257
g1
Vload_module
p258
sg3
I01
sg10
L5L
sa(dp259
g1
Vmodule_repr
p260
sg3
I01
sg10
L5L
sasg4
VMeta path import for built-in modules.\u000a\u000a    All methods are either class or static methods to avoid the need to\u000a    instantiate the class.\u000a\u000a    
p261
sa(dp262
g1
V__name__
p263
sg3
I01
sg10
L5L
sa(dp264
g1
V__package__
p265
sg3
I01
sg10
L5L
sa(dp266
g1
V__spec__
p267
sg3
I01
sg10
L5L
sa(dp268
g1
Vfilemode
p269
sg3
I01
sg10
L2L
sg4
VConvert a file's mode to a string of the form '-rwxrwxrwx'
p270
sasg10
L1L
s.