(dp0
Vname
p1
V_symtable
p2
sVis_builtin
p3
I01
sVdoc
p4
NsVchilds
p5
(lp6
(dp7
g1
VCELL
p8
sg3
I01
sVtype
p9
L5L
sa(dp10
g1
VDEF_ANNOT
p11
sg3
I01
sg9
L5L
sa(dp12
g1
VDEF_BOUND
p13
sg3
I01
sg9
L5L
sa(dp14
g1
VDEF_FREE
p15
sg3
I01
sg9
L5L
sa(dp16
g1
VDEF_FREE_CLASS
p17
sg3
I01
sg9
L5L
sa(dp18
g1
VDEF_GLOBAL
p19
sg3
I01
sg9
L5L
sa(dp20
g1
VDEF_IMPORT
p21
sg3
I01
sg9
L5L
sa(dp22
g1
VDEF_LOCAL
p23
sg3
I01
sg9
L5L
sa(dp24
g1
VDEF_PARAM
p25
sg3
I01
sg9
L5L
sa(dp26
g1
VFREE
p27
sg3
I01
sg9
L5L
sa(dp28
g1
VGLOBAL_EXPLICIT
p29
sg3
I01
sg9
L5L
sa(dp30
g1
VGLOBAL_IMPLICIT
p31
sg3
I01
sg9
L5L
sa(dp32
g1
VLOCAL
p33
sg3
I01
sg9
L5L
sa(dp34
g1
VSCOPE_MASK
p35
sg3
I01
sg9
L5L
sa(dp36
g1
VSCOPE_OFF
p37
sg3
I01
sg9
L5L
sa(dp38
g1
VTYPE_CLASS
p39
sg3
I01
sg9
L5L
sa(dp40
g1
VTYPE_FUNCTION
p41
sg3
I01
sg9
L5L
sa(dp42
g1
VTYPE_MODULE
p43
sg3
I01
sg9
L5L
sa(dp44
g1
VUSE
p45
sg3
I01
sg9
L5L
sa(dp46
g1
V__doc__
p47
sg3
I01
sg9
L5L
sa(dp48
g1
V__loader__
p49
sg3
I01
sg9
L3L
sg5
(lp50
(dp51
g1
V__delattr__
p52
sg3
I01
sg9
L5L
sa(dp53
g1
V__dict__
p54
sg3
I01
sg9
L5L
sa(dp55
g1
V__dir__
p56
sg3
I01
sg9
L2L
sg4
V__dir__() -> list\u000adefault dir() implementation
p57
sa(dp58
g1
g47
sg3
I01
sg9
L5L
sa(dp59
g1
V__eq__
p60
sg3
I01
sg9
L5L
sa(dp61
g1
V__format__
p62
sg3
I01
sg9
L2L
sg4
Vdefault object formatter
p63
sa(dp64
g1
V__ge__
p65
sg3
I01
sg9
L5L
sa(dp66
g1
V__getattribute__
p67
sg3
I01
sg9
L5L
sa(dp68
g1
V__gt__
p69
sg3
I01
sg9
L5L
sa(dp70
g1
V__hash__
p71
sg3
I01
sg9
L5L
sa(dp72
g1
V__init__
p73
sg3
I01
sg9
L5L
sa(dp74
g1
V__init_subclass__
p75
sg3
I01
sg9
L2L
sg4
VThis method is called when a class is subclassed.\u000a\u000aThe default implementation does nothing. It may be\u000aoverridden to extend subclasses.\u000a
p76
sa(dp77
g1
V__le__
p78
sg3
I01
sg9
L5L
sa(dp79
g1
V__lt__
p80
sg3
I01
sg9
L5L
sa(dp81
g1
V__module__
p82
sg3
I01
sg9
L5L
sa(dp83
g1
V__ne__
p84
sg3
I01
sg9
L5L
sa(dp85
g1
V__new__
p86
sg3
I01
sg9
L2L
sg4
VCreate and return a new object.  See help(type) for accurate signature.
p87
sa(dp88
g1
V__reduce__
p89
sg3
I01
sg9
L2L
sg4
Vhelper for pickle
p90
sa(dp91
g1
V__reduce_ex__
p92
sg3
I01
sg9
L2L
sg4
Vhelper for pickle
p93
sa(dp94
g1
V__repr__
p95
sg3
I01
sg9
L5L
sa(dp96
g1
V__setattr__
p97
sg3
I01
sg9
L5L
sa(dp98
g1
V__sizeof__
p99
sg3
I01
sg9
L2L
sg4
V__sizeof__() -> int\u000asize of object in memory, in bytes
p100
sa(dp101
g1
V__str__
p102
sg3
I01
sg9
L5L
sa(dp103
g1
V__subclasshook__
p104
sg3
I01
sg9
L2L
sg4
VAbstract classes can override this to customize issubclass().\u000a\u000aThis is invoked early on by abc.ABCMeta.__subclasscheck__().\u000aIt should return True, False or NotImplemented.  If it returns\u000aNotImplemented, the normal algorithm is used.  Otherwise, it\u000aoverrides the normal algorithm (and the outcome is cached).\u000a
p105
sa(dp106
g1
V__weakref__
p107
sg3
I01
sg9
L5L
sa(dp108
g1
Vcreate_module
p109
sg3
I01
sg9
L5L
sa(dp110
g1
Vexec_module
p111
sg3
I01
sg9
L5L
sa(dp112
g1
Vfind_module
p113
sg3
I01
sg9
L5L
sa(dp114
g1
Vfind_spec
p115
sg3
I01
sg9
L5L
sa(dp116
g1
Vget_code
p117
sg3
I01
sg9
L5L
sa(dp118
g1
Vget_source
p119
sg3
I01
sg9
L5L
sa(dp120
g1
Vis_package
p121
sg3
I01
sg9
L5L
sa(dp122
g1
Vload_module
p123
sg3
I01
sg9
L5L
sa(dp124
g1
Vmodule_repr
p125
sg3
I01
sg9
L5L
sasg4
VMeta path import for built-in modules.\u000a\u000a    All methods are either class or static methods to avoid the need to\u000a    instantiate the class.\u000a\u000a    
p126
sa(dp127
g1
V__name__
p128
sg3
I01
sg9
L5L
sa(dp129
g1
V__package__
p130
sg3
I01
sg9
L5L
sa(dp131
g1
V__spec__
p132
sg3
I01
sg9
L5L
sa(dp133
g1
Vsymtable
p134
sg3
I01
sg9
L2L
sg4
VReturn symbol and scope dictionaries used internally by compiler.
p135
sasg9
L1L
s.