(dp0
Vname
p1
V_weakref
p2
sVis_builtin
p3
I01
sVdoc
p4
VWeak-reference support module.
p5
sVchilds
p6
(lp7
(dp8
g1
VCallableProxyType
p9
sg3
I01
sVtype
p10
L3L
sg6
(lp11
(dp12
g1
V__abs__
p13
sg3
I01
sg10
L5L
sa(dp14
g1
V__add__
p15
sg3
I01
sg10
L5L
sa(dp16
g1
V__and__
p17
sg3
I01
sg10
L5L
sa(dp18
g1
V__bool__
p19
sg3
I01
sg10
L5L
sa(dp20
g1
V__call__
p21
sg3
I01
sg10
L5L
sa(dp22
g1
V__contains__
p23
sg3
I01
sg10
L5L
sa(dp24
g1
V__delattr__
p25
sg3
I01
sg10
L5L
sa(dp26
g1
V__delitem__
p27
sg3
I01
sg10
L5L
sa(dp28
g1
V__dir__
p29
sg3
I01
sg10
L2L
sg4
V__dir__() -> list\u000adefault dir() implementation
p30
sa(dp31
g1
V__divmod__
p32
sg3
I01
sg10
L5L
sa(dp33
g1
V__doc__
p34
sg3
I01
sg10
L5L
sa(dp35
g1
V__eq__
p36
sg3
I01
sg10
L5L
sa(dp37
g1
V__float__
p38
sg3
I01
sg10
L5L
sa(dp39
g1
V__floordiv__
p40
sg3
I01
sg10
L5L
sa(dp41
g1
V__format__
p42
sg3
I01
sg10
L2L
sg4
Vdefault object formatter
p43
sa(dp44
g1
V__ge__
p45
sg3
I01
sg10
L5L
sa(dp46
g1
V__getattribute__
p47
sg3
I01
sg10
L5L
sa(dp48
g1
V__getitem__
p49
sg3
I01
sg10
L5L
sa(dp50
g1
V__gt__
p51
sg3
I01
sg10
L5L
sa(dp52
g1
V__hash__
p53
sg3
I01
sg10
L5L
sa(dp54
g1
V__iadd__
p55
sg3
I01
sg10
L5L
sa(dp56
g1
V__iand__
p57
sg3
I01
sg10
L5L
sa(dp58
g1
V__ifloordiv__
p59
sg3
I01
sg10
L5L
sa(dp60
g1
V__ilshift__
p61
sg3
I01
sg10
L5L
sa(dp62
g1
V__imod__
p63
sg3
I01
sg10
L5L
sa(dp64
g1
V__imul__
p65
sg3
I01
sg10
L5L
sa(dp66
g1
V__index__
p67
sg3
I01
sg10
L5L
sa(dp68
g1
V__init__
p69
sg3
I01
sg10
L5L
sa(dp70
g1
V__init_subclass__
p71
sg3
I01
sg10
L2L
sg4
VThis method is called when a class is subclassed.\u000a\u000aThe default implementation does nothing. It may be\u000aoverridden to extend subclasses.\u000a
p72
sa(dp73
g1
V__int__
p74
sg3
I01
sg10
L5L
sa(dp75
g1
V__invert__
p76
sg3
I01
sg10
L5L
sa(dp77
g1
V__ior__
p78
sg3
I01
sg10
L5L
sa(dp79
g1
V__ipow__
p80
sg3
I01
sg10
L5L
sa(dp81
g1
V__irshift__
p82
sg3
I01
sg10
L5L
sa(dp83
g1
V__isub__
p84
sg3
I01
sg10
L5L
sa(dp85
g1
V__iter__
p86
sg3
I01
sg10
L5L
sa(dp87
g1
V__itruediv__
p88
sg3
I01
sg10
L5L
sa(dp89
g1
V__ixor__
p90
sg3
I01
sg10
L5L
sa(dp91
g1
V__le__
p92
sg3
I01
sg10
L5L
sa(dp93
g1
V__len__
p94
sg3
I01
sg10
L5L
sa(dp95
g1
V__lshift__
p96
sg3
I01
sg10
L5L
sa(dp97
g1
V__lt__
p98
sg3
I01
sg10
L5L
sa(dp99
g1
V__mod__
p100
sg3
I01
sg10
L5L
sa(dp101
g1
V__mul__
p102
sg3
I01
sg10
L5L
sa(dp103
g1
V__ne__
p104
sg3
I01
sg10
L5L
sa(dp105
g1
V__neg__
p106
sg3
I01
sg10
L5L
sa(dp107
g1
V__new__
p108
sg3
I01
sg10
L2L
sg4
VCreate and return a new object.  See help(type) for accurate signature.
p109
sa(dp110
g1
V__next__
p111
sg3
I01
sg10
L5L
sa(dp112
g1
V__or__
p113
sg3
I01
sg10
L5L
sa(dp114
g1
V__pos__
p115
sg3
I01
sg10
L5L
sa(dp116
g1
V__pow__
p117
sg3
I01
sg10
L5L
sa(dp118
g1
V__radd__
p119
sg3
I01
sg10
L5L
sa(dp120
g1
V__rand__
p121
sg3
I01
sg10
L5L
sa(dp122
g1
V__rdivmod__
p123
sg3
I01
sg10
L5L
sa(dp124
g1
V__reduce__
p125
sg3
I01
sg10
L2L
sg4
Vhelper for pickle
p126
sa(dp127
g1
V__reduce_ex__
p128
sg3
I01
sg10
L2L
sg4
Vhelper for pickle
p129
sa(dp130
g1
V__repr__
p131
sg3
I01
sg10
L5L
sa(dp132
g1
V__rfloordiv__
p133
sg3
I01
sg10
L5L
sa(dp134
g1
V__rlshift__
p135
sg3
I01
sg10
L5L
sa(dp136
g1
V__rmod__
p137
sg3
I01
sg10
L5L
sa(dp138
g1
V__rmul__
p139
sg3
I01
sg10
L5L
sa(dp140
g1
V__ror__
p141
sg3
I01
sg10
L5L
sa(dp142
g1
V__rpow__
p143
sg3
I01
sg10
L5L
sa(dp144
g1
V__rrshift__
p145
sg3
I01
sg10
L5L
sa(dp146
g1
V__rshift__
p147
sg3
I01
sg10
L5L
sa(dp148
g1
V__rsub__
p149
sg3
I01
sg10
L5L
sa(dp150
g1
V__rtruediv__
p151
sg3
I01
sg10
L5L
sa(dp152
g1
V__rxor__
p153
sg3
I01
sg10
L5L
sa(dp154
g1
V__setattr__
p155
sg3
I01
sg10
L5L
sa(dp156
g1
V__setitem__
p157
sg3
I01
sg10
L5L
sa(dp158
g1
V__sizeof__
p159
sg3
I01
sg10
L2L
sg4
V__sizeof__() -> int\u000asize of object in memory, in bytes
p160
sa(dp161
g1
V__str__
p162
sg3
I01
sg10
L5L
sa(dp163
g1
V__sub__
p164
sg3
I01
sg10
L5L
sa(dp165
g1
V__subclasshook__
p166
sg3
I01
sg10
L2L
sg4
VAbstract classes can override this to customize issubclass().\u000a\u000aThis is invoked early on by abc.ABCMeta.__subclasscheck__().\u000aIt should return True, False or NotImplemented.  If it returns\u000aNotImplemented, the normal algorithm is used.  Otherwise, it\u000aoverrides the normal algorithm (and the outcome is cached).\u000a
p167
sa(dp168
g1
V__truediv__
p169
sg3
I01
sg10
L5L
sa(dp170
g1
V__xor__
p171
sg3
I01
sg10
L5L
sasg4
Nsa(dp172
g1
VProxyType
p173
sg3
I01
sg10
L3L
sg6
(lp174
(dp175
g1
g13
sg3
I01
sg10
L5L
sa(dp176
g1
g15
sg3
I01
sg10
L5L
sa(dp177
g1
g17
sg3
I01
sg10
L5L
sa(dp178
g1
g19
sg3
I01
sg10
L5L
sa(dp179
g1
V__bytes__
p180
sg3
I01
sg10
L2L
sg4
Nsa(dp181
g1
g23
sg3
I01
sg10
L5L
sa(dp182
g1
g25
sg3
I01
sg10
L5L
sa(dp183
g1
g27
sg3
I01
sg10
L5L
sa(dp184
g1
g29
sg3
I01
sg10
L2L
sg4
V__dir__() -> list\u000adefault dir() implementation
p185
sa(dp186
g1
g32
sg3
I01
sg10
L5L
sa(dp187
g1
g34
sg3
I01
sg10
L5L
sa(dp188
g1
g36
sg3
I01
sg10
L5L
sa(dp189
g1
g38
sg3
I01
sg10
L5L
sa(dp190
g1
g40
sg3
I01
sg10
L5L
sa(dp191
g1
g42
sg3
I01
sg10
L2L
sg4
Vdefault object formatter
p192
sa(dp193
g1
g45
sg3
I01
sg10
L5L
sa(dp194
g1
g47
sg3
I01
sg10
L5L
sa(dp195
g1
g49
sg3
I01
sg10
L5L
sa(dp196
g1
g51
sg3
I01
sg10
L5L
sa(dp197
g1
g53
sg3
I01
sg10
L5L
sa(dp198
g1
g55
sg3
I01
sg10
L5L
sa(dp199
g1
g57
sg3
I01
sg10
L5L
sa(dp200
g1
g59
sg3
I01
sg10
L5L
sa(dp201
g1
g61
sg3
I01
sg10
L5L
sa(dp202
g1
g63
sg3
I01
sg10
L5L
sa(dp203
g1
g65
sg3
I01
sg10
L5L
sa(dp204
g1
g67
sg3
I01
sg10
L5L
sa(dp205
g1
g69
sg3
I01
sg10
L5L
sa(dp206
g1
g71
sg3
I01
sg10
L2L
sg4
VThis method is called when a class is subclassed.\u000a\u000aThe default implementation does nothing. It may be\u000aoverridden to extend subclasses.\u000a
p207
sa(dp208
g1
g74
sg3
I01
sg10
L5L
sa(dp209
g1
g76
sg3
I01
sg10
L5L
sa(dp210
g1
g78
sg3
I01
sg10
L5L
sa(dp211
g1
g80
sg3
I01
sg10
L5L
sa(dp212
g1
g82
sg3
I01
sg10
L5L
sa(dp213
g1
g84
sg3
I01
sg10
L5L
sa(dp214
g1
g86
sg3
I01
sg10
L5L
sa(dp215
g1
g88
sg3
I01
sg10
L5L
sa(dp216
g1
g90
sg3
I01
sg10
L5L
sa(dp217
g1
g92
sg3
I01
sg10
L5L
sa(dp218
g1
g94
sg3
I01
sg10
L5L
sa(dp219
g1
g96
sg3
I01
sg10
L5L
sa(dp220
g1
g98
sg3
I01
sg10
L5L
sa(dp221
g1
g100
sg3
I01
sg10
L5L
sa(dp222
g1
g102
sg3
I01
sg10
L5L
sa(dp223
g1
g104
sg3
I01
sg10
L5L
sa(dp224
g1
g106
sg3
I01
sg10
L5L
sa(dp225
g1
g108
sg3
I01
sg10
L2L
sg4
VCreate and return a new object.  See help(type) for accurate signature.
p226
sa(dp227
g1
g111
sg3
I01
sg10
L5L
sa(dp228
g1
g113
sg3
I01
sg10
L5L
sa(dp229
g1
g115
sg3
I01
sg10
L5L
sa(dp230
g1
g117
sg3
I01
sg10
L5L
sa(dp231
g1
g119
sg3
I01
sg10
L5L
sa(dp232
g1
g121
sg3
I01
sg10
L5L
sa(dp233
g1
g123
sg3
I01
sg10
L5L
sa(dp234
g1
g125
sg3
I01
sg10
L2L
sg4
Vhelper for pickle
p235
sa(dp236
g1
g128
sg3
I01
sg10
L2L
sg4
Vhelper for pickle
p237
sa(dp238
g1
g131
sg3
I01
sg10
L5L
sa(dp239
g1
g133
sg3
I01
sg10
L5L
sa(dp240
g1
g135
sg3
I01
sg10
L5L
sa(dp241
g1
g137
sg3
I01
sg10
L5L
sa(dp242
g1
g139
sg3
I01
sg10
L5L
sa(dp243
g1
g141
sg3
I01
sg10
L5L
sa(dp244
g1
g143
sg3
I01
sg10
L5L
sa(dp245
g1
g145
sg3
I01
sg10
L5L
sa(dp246
g1
g147
sg3
I01
sg10
L5L
sa(dp247
g1
g149
sg3
I01
sg10
L5L
sa(dp248
g1
g151
sg3
I01
sg10
L5L
sa(dp249
g1
g153
sg3
I01
sg10
L5L
sa(dp250
g1
g155
sg3
I01
sg10
L5L
sa(dp251
g1
g157
sg3
I01
sg10
L5L
sa(dp252
g1
g159
sg3
I01
sg10
L2L
sg4
V__sizeof__() -> int\u000asize of object in memory, in bytes
p253
sa(dp254
g1
g162
sg3
I01
sg10
L5L
sa(dp255
g1
g164
sg3
I01
sg10
L5L
sa(dp256
g1
g166
sg3
I01
sg10
L2L
sg4
VAbstract classes can override this to customize issubclass().\u000a\u000aThis is invoked early on by abc.ABCMeta.__subclasscheck__().\u000aIt should return True, False or NotImplemented.  If it returns\u000aNotImplemented, the normal algorithm is used.  Otherwise, it\u000aoverrides the normal algorithm (and the outcome is cached).\u000a
p257
sa(dp258
g1
g169
sg3
I01
sg10
L5L
sa(dp259
g1
g171
sg3
I01
sg10
L5L
sasg4
Nsa(dp260
g1
VReferenceType
p261
sg3
I01
sg10
L3L
sg6
(lp262
(dp263
g1
g21
sg3
I01
sg10
L5L
sa(dp264
g1
V__callback__
p265
sg3
I01
sg10
L5L
sa(dp266
g1
g25
sg3
I01
sg10
L5L
sa(dp267
g1
g29
sg3
I01
sg10
L2L
sg4
V__dir__() -> list\u000adefault dir() implementation
p268
sa(dp269
g1
g34
sg3
I01
sg10
L5L
sa(dp270
g1
g36
sg3
I01
sg10
L5L
sa(dp271
g1
g42
sg3
I01
sg10
L2L
sg4
Vdefault object formatter
p272
sa(dp273
g1
g45
sg3
I01
sg10
L5L
sa(dp274
g1
g47
sg3
I01
sg10
L5L
sa(dp275
g1
g51
sg3
I01
sg10
L5L
sa(dp276
g1
g53
sg3
I01
sg10
L5L
sa(dp277
g1
g69
sg3
I01
sg10
L5L
sa(dp278
g1
g71
sg3
I01
sg10
L2L
sg4
VThis method is called when a class is subclassed.\u000a\u000aThe default implementation does nothing. It may be\u000aoverridden to extend subclasses.\u000a
p279
sa(dp280
g1
g92
sg3
I01
sg10
L5L
sa(dp281
g1
g98
sg3
I01
sg10
L5L
sa(dp282
g1
g104
sg3
I01
sg10
L5L
sa(dp283
g1
g108
sg3
I01
sg10
L2L
sg4
VCreate and return a new object.  See help(type) for accurate signature.
p284
sa(dp285
g1
g125
sg3
I01
sg10
L2L
sg4
Vhelper for pickle
p286
sa(dp287
g1
g128
sg3
I01
sg10
L2L
sg4
Vhelper for pickle
p288
sa(dp289
g1
g131
sg3
I01
sg10
L5L
sa(dp290
g1
g155
sg3
I01
sg10
L5L
sa(dp291
g1
g159
sg3
I01
sg10
L2L
sg4
V__sizeof__() -> int\u000asize of object in memory, in bytes
p292
sa(dp293
g1
g162
sg3
I01
sg10
L5L
sa(dp294
g1
g166
sg3
I01
sg10
L2L
sg4
VAbstract classes can override this to customize issubclass().\u000a\u000aThis is invoked early on by abc.ABCMeta.__subclasscheck__().\u000aIt should return True, False or NotImplemented.  If it returns\u000aNotImplemented, the normal algorithm is used.  Otherwise, it\u000aoverrides the normal algorithm (and the outcome is cached).\u000a
p295
sasg4
Nsa(dp296
g1
g34
sg3
I01
sg10
L5L
sa(dp297
g1
V__loader__
p298
sg3
I01
sg10
L3L
sg6
(lp299
(dp300
g1
g25
sg3
I01
sg10
L5L
sa(dp301
g1
V__dict__
p302
sg3
I01
sg10
L5L
sa(dp303
g1
g29
sg3
I01
sg10
L2L
sg4
V__dir__() -> list\u000adefault dir() implementation
p304
sa(dp305
g1
g34
sg3
I01
sg10
L5L
sa(dp306
g1
g36
sg3
I01
sg10
L5L
sa(dp307
g1
g42
sg3
I01
sg10
L2L
sg4
Vdefault object formatter
p308
sa(dp309
g1
g45
sg3
I01
sg10
L5L
sa(dp310
g1
g47
sg3
I01
sg10
L5L
sa(dp311
g1
g51
sg3
I01
sg10
L5L
sa(dp312
g1
g53
sg3
I01
sg10
L5L
sa(dp313
g1
g69
sg3
I01
sg10
L5L
sa(dp314
g1
g71
sg3
I01
sg10
L2L
sg4
VThis method is called when a class is subclassed.\u000a\u000aThe default implementation does nothing. It may be\u000aoverridden to extend subclasses.\u000a
p315
sa(dp316
g1
g92
sg3
I01
sg10
L5L
sa(dp317
g1
g98
sg3
I01
sg10
L5L
sa(dp318
g1
V__module__
p319
sg3
I01
sg10
L5L
sa(dp320
g1
g104
sg3
I01
sg10
L5L
sa(dp321
g1
g108
sg3
I01
sg10
L2L
sg4
VCreate and return a new object.  See help(type) for accurate signature.
p322
sa(dp323
g1
g125
sg3
I01
sg10
L2L
sg4
Vhelper for pickle
p324
sa(dp325
g1
g128
sg3
I01
sg10
L2L
sg4
Vhelper for pickle
p326
sa(dp327
g1
g131
sg3
I01
sg10
L5L
sa(dp328
g1
g155
sg3
I01
sg10
L5L
sa(dp329
g1
g159
sg3
I01
sg10
L2L
sg4
V__sizeof__() -> int\u000asize of object in memory, in bytes
p330
sa(dp331
g1
g162
sg3
I01
sg10
L5L
sa(dp332
g1
g166
sg3
I01
sg10
L2L
sg4
VAbstract classes can override this to customize issubclass().\u000a\u000aThis is invoked early on by abc.ABCMeta.__subclasscheck__().\u000aIt should return True, False or NotImplemented.  If it returns\u000aNotImplemented, the normal algorithm is used.  Otherwise, it\u000aoverrides the normal algorithm (and the outcome is cached).\u000a
p333
sa(dp334
g1
V__weakref__
p335
sg3
I01
sg10
L5L
sa(dp336
g1
Vcreate_module
p337
sg3
I01
sg10
L5L
sa(dp338
g1
Vexec_module
p339
sg3
I01
sg10
L5L
sa(dp340
g1
Vfind_module
p341
sg3
I01
sg10
L5L
sa(dp342
g1
Vfind_spec
p343
sg3
I01
sg10
L5L
sa(dp344
g1
Vget_code
p345
sg3
I01
sg10
L5L
sa(dp346
g1
Vget_source
p347
sg3
I01
sg10
L5L
sa(dp348
g1
Vis_package
p349
sg3
I01
sg10
L5L
sa(dp350
g1
Vload_module
p351
sg3
I01
sg10
L5L
sa(dp352
g1
Vmodule_repr
p353
sg3
I01
sg10
L5L
sasg4
VMeta path import for built-in modules.\u000a\u000a    All methods are either class or static methods to avoid the need to\u000a    instantiate the class.\u000a\u000a    
p354
sa(dp355
g1
V__name__
p356
sg3
I01
sg10
L5L
sa(dp357
g1
V__package__
p358
sg3
I01
sg10
L5L
sa(dp359
g1
V__spec__
p360
sg3
I01
sg10
L5L
sa(dp361
g1
V_remove_dead_weakref
p362
sg3
I01
sg10
L2L
sg4
VAtomically remove key from dict if it points to a dead weakref.
p363
sa(dp364
g1
Vgetweakrefcount
p365
sg3
I01
sg10
L2L
sg4
VReturn the number of weak references to 'object'.
p366
sa(dp367
g1
Vgetweakrefs
p368
sg3
I01
sg10
L2L
sg4
Vgetweakrefs(object) -- return a list of all weak reference objects\u000athat point to 'object'.
p369
sa(dp370
g1
Vproxy
p371
sg3
I01
sg10
L2L
sg4
Vproxy(object[, callback]) -- create a proxy object that weakly\u000areferences 'object'.  'callback', if given, is called with a\u000areference to the proxy when 'object' is about to be finalized.
p372
sa(dp373
g1
Vref
p374
sg3
I01
sg10
L3L
sg6
(lp375
(dp376
g1
g21
sg3
I01
sg10
L5L
sa(dp377
g1
g265
sg3
I01
sg10
L5L
sa(dp378
g1
g25
sg3
I01
sg10
L5L
sa(dp379
g1
g29
sg3
I01
sg10
L2L
sg4
V__dir__() -> list\u000adefault dir() implementation
p380
sa(dp381
g1
g34
sg3
I01
sg10
L5L
sa(dp382
g1
g36
sg3
I01
sg10
L5L
sa(dp383
g1
g42
sg3
I01
sg10
L2L
sg4
Vdefault object formatter
p384
sa(dp385
g1
g45
sg3
I01
sg10
L5L
sa(dp386
g1
g47
sg3
I01
sg10
L5L
sa(dp387
g1
g51
sg3
I01
sg10
L5L
sa(dp388
g1
g53
sg3
I01
sg10
L5L
sa(dp389
g1
g69
sg3
I01
sg10
L5L
sa(dp390
g1
g71
sg3
I01
sg10
L2L
sg4
VThis method is called when a class is subclassed.\u000a\u000aThe default implementation does nothing. It may be\u000aoverridden to extend subclasses.\u000a
p391
sa(dp392
g1
g92
sg3
I01
sg10
L5L
sa(dp393
g1
g98
sg3
I01
sg10
L5L
sa(dp394
g1
g104
sg3
I01
sg10
L5L
sa(dp395
g1
g108
sg3
I01
sg10
L2L
sg4
VCreate and return a new object.  See help(type) for accurate signature.
p396
sa(dp397
g1
g125
sg3
I01
sg10
L2L
sg4
Vhelper for pickle
p398
sa(dp399
g1
g128
sg3
I01
sg10
L2L
sg4
Vhelper for pickle
p400
sa(dp401
g1
g131
sg3
I01
sg10
L5L
sa(dp402
g1
g155
sg3
I01
sg10
L5L
sa(dp403
g1
g159
sg3
I01
sg10
L2L
sg4
V__sizeof__() -> int\u000asize of object in memory, in bytes
p404
sa(dp405
g1
g162
sg3
I01
sg10
L5L
sa(dp406
g1
g166
sg3
I01
sg10
L2L
sg4
VAbstract classes can override this to customize issubclass().\u000a\u000aThis is invoked early on by abc.ABCMeta.__subclasscheck__().\u000aIt should return True, False or NotImplemented.  If it returns\u000aNotImplemented, the normal algorithm is used.  Otherwise, it\u000aoverrides the normal algorithm (and the outcome is cached).\u000a
p407
sasg4
Nsasg10
L1L
s.