(dp0
Vname
p1
Vaudioop
p2
sVis_builtin
p3
I01
sVdoc
p4
NsVchilds
p5
(lp6
(dp7
g1
V__doc__
p8
sg3
I01
sVtype
p9
L5L
sa(dp10
g1
V__loader__
p11
sg3
I01
sg9
L3L
sg5
(lp12
(dp13
g1
V__delattr__
p14
sg3
I01
sg9
L5L
sa(dp15
g1
V__dict__
p16
sg3
I01
sg9
L5L
sa(dp17
g1
V__dir__
p18
sg3
I01
sg9
L2L
sg4
V__dir__() -> list\u000adefault dir() implementation
p19
sa(dp20
g1
g8
sg3
I01
sg9
L5L
sa(dp21
g1
V__eq__
p22
sg3
I01
sg9
L5L
sa(dp23
g1
V__format__
p24
sg3
I01
sg9
L2L
sg4
Vdefault object formatter
p25
sa(dp26
g1
V__ge__
p27
sg3
I01
sg9
L5L
sa(dp28
g1
V__getattribute__
p29
sg3
I01
sg9
L5L
sa(dp30
g1
V__gt__
p31
sg3
I01
sg9
L5L
sa(dp32
g1
V__hash__
p33
sg3
I01
sg9
L5L
sa(dp34
g1
V__init__
p35
sg3
I01
sg9
L5L
sa(dp36
g1
V__init_subclass__
p37
sg3
I01
sg9
L2L
sg4
VThis method is called when a class is subclassed.\u000a\u000aThe default implementation does nothing. It may be\u000aoverridden to extend subclasses.\u000a
p38
sa(dp39
g1
V__le__
p40
sg3
I01
sg9
L5L
sa(dp41
g1
V__lt__
p42
sg3
I01
sg9
L5L
sa(dp43
g1
V__module__
p44
sg3
I01
sg9
L5L
sa(dp45
g1
V__ne__
p46
sg3
I01
sg9
L5L
sa(dp47
g1
V__new__
p48
sg3
I01
sg9
L2L
sg4
VCreate and return a new object.  See help(type) for accurate signature.
p49
sa(dp50
g1
V__reduce__
p51
sg3
I01
sg9
L2L
sg4
Vhelper for pickle
p52
sa(dp53
g1
V__reduce_ex__
p54
sg3
I01
sg9
L2L
sg4
Vhelper for pickle
p55
sa(dp56
g1
V__repr__
p57
sg3
I01
sg9
L5L
sa(dp58
g1
V__setattr__
p59
sg3
I01
sg9
L5L
sa(dp60
g1
V__sizeof__
p61
sg3
I01
sg9
L2L
sg4
V__sizeof__() -> int\u000asize of object in memory, in bytes
p62
sa(dp63
g1
V__str__
p64
sg3
I01
sg9
L5L
sa(dp65
g1
V__subclasshook__
p66
sg3
I01
sg9
L2L
sg4
VAbstract classes can override this to customize issubclass().\u000a\u000aThis is invoked early on by abc.ABCMeta.__subclasscheck__().\u000aIt should return True, False or NotImplemented.  If it returns\u000aNotImplemented, the normal algorithm is used.  Otherwise, it\u000aoverrides the normal algorithm (and the outcome is cached).\u000a
p67
sa(dp68
g1
V__weakref__
p69
sg3
I01
sg9
L5L
sa(dp70
g1
Vcreate_module
p71
sg3
I01
sg9
L5L
sa(dp72
g1
Vexec_module
p73
sg3
I01
sg9
L5L
sa(dp74
g1
Vfind_module
p75
sg3
I01
sg9
L5L
sa(dp76
g1
Vfind_spec
p77
sg3
I01
sg9
L5L
sa(dp78
g1
Vget_code
p79
sg3
I01
sg9
L5L
sa(dp80
g1
Vget_source
p81
sg3
I01
sg9
L5L
sa(dp82
g1
Vis_package
p83
sg3
I01
sg9
L5L
sa(dp84
g1
Vload_module
p85
sg3
I01
sg9
L5L
sa(dp86
g1
Vmodule_repr
p87
sg3
I01
sg9
L5L
sasg4
VMeta path import for built-in modules.\u000a\u000a    All methods are either class or static methods to avoid the need to\u000a    instantiate the class.\u000a\u000a    
p88
sa(dp89
g1
V__name__
p90
sg3
I01
sg9
L5L
sa(dp91
g1
V__package__
p92
sg3
I01
sg9
L5L
sa(dp93
g1
V__spec__
p94
sg3
I01
sg9
L5L
sa(dp95
g1
Vadd
p96
sg3
I01
sg9
L2L
sg4
VReturn a fragment which is the addition of the two samples passed as parameters.
p97
sa(dp98
g1
Vadpcm2lin
p99
sg3
I01
sg9
L2L
sg4
VDecode an Intel/DVI ADPCM coded fragment to a linear fragment.
p100
sa(dp101
g1
Valaw2lin
p102
sg3
I01
sg9
L2L
sg4
VConvert sound fragments in a-LAW encoding to linearly encoded sound fragments.
p103
sa(dp104
g1
Vavg
p105
sg3
I01
sg9
L2L
sg4
VReturn the average over all samples in the fragment.
p106
sa(dp107
g1
Vavgpp
p108
sg3
I01
sg9
L2L
sg4
VReturn the average peak-peak value over all samples in the fragment.
p109
sa(dp110
g1
Vbias
p111
sg3
I01
sg9
L2L
sg4
VReturn a fragment that is the original fragment with a bias added to each sample.
p112
sa(dp113
g1
Vbyteswap
p114
sg3
I01
sg9
L2L
sg4
VConvert big-endian samples to little-endian and vice versa.
p115
sa(dp116
g1
Vcross
p117
sg3
I01
sg9
L2L
sg4
VReturn the number of zero crossings in the fragment passed as an argument.
p118
sa(dp119
g1
Verror
p120
sg3
I01
sg9
L3L
sg5
(lp121
(dp122
g1
V__cause__
p123
sg3
I01
sg9
L5L
sa(dp124
g1
V__context__
p125
sg3
I01
sg9
L5L
sa(dp126
g1
g14
sg3
I01
sg9
L5L
sa(dp127
g1
g16
sg3
I01
sg9
L5L
sa(dp128
g1
g18
sg3
I01
sg9
L2L
sg4
V__dir__() -> list\u000adefault dir() implementation
p129
sa(dp130
g1
g8
sg3
I01
sg9
L5L
sa(dp131
g1
g22
sg3
I01
sg9
L5L
sa(dp132
g1
g24
sg3
I01
sg9
L2L
sg4
Vdefault object formatter
p133
sa(dp134
g1
g27
sg3
I01
sg9
L5L
sa(dp135
g1
g29
sg3
I01
sg9
L5L
sa(dp136
g1
g31
sg3
I01
sg9
L5L
sa(dp137
g1
g33
sg3
I01
sg9
L5L
sa(dp138
g1
g35
sg3
I01
sg9
L5L
sa(dp139
g1
g37
sg3
I01
sg9
L2L
sg4
VThis method is called when a class is subclassed.\u000a\u000aThe default implementation does nothing. It may be\u000aoverridden to extend subclasses.\u000a
p140
sa(dp141
g1
g40
sg3
I01
sg9
L5L
sa(dp142
g1
g42
sg3
I01
sg9
L5L
sa(dp143
g1
g44
sg3
I01
sg9
L5L
sa(dp144
g1
g46
sg3
I01
sg9
L5L
sa(dp145
g1
g48
sg3
I01
sg9
L2L
sg4
VCreate and return a new object.  See help(type) for accurate signature.
p146
sa(dp147
g1
g51
sg3
I01
sg9
L2L
sg4
Nsa(dp148
g1
g54
sg3
I01
sg9
L2L
sg4
Vhelper for pickle
p149
sa(dp150
g1
g57
sg3
I01
sg9
L5L
sa(dp151
g1
g59
sg3
I01
sg9
L5L
sa(dp152
g1
V__setstate__
p153
sg3
I01
sg9
L2L
sg4
Nsa(dp154
g1
g61
sg3
I01
sg9
L2L
sg4
V__sizeof__() -> int\u000asize of object in memory, in bytes
p155
sa(dp156
g1
g64
sg3
I01
sg9
L5L
sa(dp157
g1
g66
sg3
I01
sg9
L2L
sg4
VAbstract classes can override this to customize issubclass().\u000a\u000aThis is invoked early on by abc.ABCMeta.__subclasscheck__().\u000aIt should return True, False or NotImplemented.  If it returns\u000aNotImplemented, the normal algorithm is used.  Otherwise, it\u000aoverrides the normal algorithm (and the outcome is cached).\u000a
p158
sa(dp159
g1
V__suppress_context__
p160
sg3
I01
sg9
L5L
sa(dp161
g1
V__traceback__
p162
sg3
I01
sg9
L5L
sa(dp163
g1
g69
sg3
I01
sg9
L5L
sa(dp164
g1
Vargs
p165
sg3
I01
sg9
L5L
sa(dp166
g1
Vwith_traceback
p167
sg3
I01
sg9
L2L
sg4
VException.with_traceback(tb) --\u000a    set self.__traceback__ to tb and return self.
p168
sasg4
Nsa(dp169
g1
Vfindfactor
p170
sg3
I01
sg9
L2L
sg4
VReturn a factor F such that rms(add(fragment, mul(reference, -F))) is minimal.
p171
sa(dp172
g1
Vfindfit
p173
sg3
I01
sg9
L2L
sg4
VTry to match reference as well as possible to a portion of fragment.
p174
sa(dp175
g1
Vfindmax
p176
sg3
I01
sg9
L2L
sg4
VSearch fragment for a slice of specified number of samples with maximum energy.
p177
sa(dp178
g1
Vgetsample
p179
sg3
I01
sg9
L2L
sg4
VReturn the value of sample index from the fragment.
p180
sa(dp181
g1
Vlin2adpcm
p182
sg3
I01
sg9
L2L
sg4
VConvert samples to 4 bit Intel/DVI ADPCM encoding.
p183
sa(dp184
g1
Vlin2alaw
p185
sg3
I01
sg9
L2L
sg4
VConvert samples in the audio fragment to a-LAW encoding.
p186
sa(dp187
g1
Vlin2lin
p188
sg3
I01
sg9
L2L
sg4
VConvert samples between 1-, 2-, 3- and 4-byte formats.
p189
sa(dp190
g1
Vlin2ulaw
p191
sg3
I01
sg9
L2L
sg4
VConvert samples in the audio fragment to u-LAW encoding.
p192
sa(dp193
g1
Vmax
p194
sg3
I01
sg9
L2L
sg4
VReturn the maximum of the absolute value of all samples in a fragment.
p195
sa(dp196
g1
Vmaxpp
p197
sg3
I01
sg9
L2L
sg4
VReturn the maximum peak-peak value in the sound fragment.
p198
sa(dp199
g1
Vminmax
p200
sg3
I01
sg9
L2L
sg4
VReturn the minimum and maximum values of all samples in the sound fragment.
p201
sa(dp202
g1
Vmul
p203
sg3
I01
sg9
L2L
sg4
VReturn a fragment that has all samples in the original fragment multiplied by the floating-point value factor.
p204
sa(dp205
g1
Vratecv
p206
sg3
I01
sg9
L2L
sg4
VConvert the frame rate of the input fragment.
p207
sa(dp208
g1
Vreverse
p209
sg3
I01
sg9
L2L
sg4
VReverse the samples in a fragment and returns the modified fragment.
p210
sa(dp211
g1
Vrms
p212
sg3
I01
sg9
L2L
sg4
VReturn the root-mean-square of the fragment, i.e. sqrt(sum(S_i^2)/n).
p213
sa(dp214
g1
Vtomono
p215
sg3
I01
sg9
L2L
sg4
VConvert a stereo fragment to a mono fragment.
p216
sa(dp217
g1
Vtostereo
p218
sg3
I01
sg9
L2L
sg4
VGenerate a stereo fragment from a mono fragment.
p219
sa(dp220
g1
Vulaw2lin
p221
sg3
I01
sg9
L2L
sg4
VConvert sound fragments in u-LAW encoding to linearly encoded sound fragments.
p222
sasg9
L1L
s.