(dp0
Vname
p1
Vbinascii
p2
sVis_builtin
p3
I01
sVdoc
p4
VConversion between binary data and ASCII
p5
sVchilds
p6
(lp7
(dp8
g1
VError
p9
sg3
I01
sVtype
p10
L3L
sg6
(lp11
(dp12
g1
V__cause__
p13
sg3
I01
sg10
L5L
sa(dp14
g1
V__context__
p15
sg3
I01
sg10
L5L
sa(dp16
g1
V__delattr__
p17
sg3
I01
sg10
L5L
sa(dp18
g1
V__dict__
p19
sg3
I01
sg10
L5L
sa(dp20
g1
V__dir__
p21
sg3
I01
sg10
L2L
sg4
V__dir__() -> list\u000adefault dir() implementation
p22
sa(dp23
g1
V__doc__
p24
sg3
I01
sg10
L5L
sa(dp25
g1
V__eq__
p26
sg3
I01
sg10
L5L
sa(dp27
g1
V__format__
p28
sg3
I01
sg10
L2L
sg4
Vdefault object formatter
p29
sa(dp30
g1
V__ge__
p31
sg3
I01
sg10
L5L
sa(dp32
g1
V__getattribute__
p33
sg3
I01
sg10
L5L
sa(dp34
g1
V__gt__
p35
sg3
I01
sg10
L5L
sa(dp36
g1
V__hash__
p37
sg3
I01
sg10
L5L
sa(dp38
g1
V__init__
p39
sg3
I01
sg10
L5L
sa(dp40
g1
V__init_subclass__
p41
sg3
I01
sg10
L2L
sg4
VThis method is called when a class is subclassed.\u000a\u000aThe default implementation does nothing. It may be\u000aoverridden to extend subclasses.\u000a
p42
sa(dp43
g1
V__le__
p44
sg3
I01
sg10
L5L
sa(dp45
g1
V__lt__
p46
sg3
I01
sg10
L5L
sa(dp47
g1
V__module__
p48
sg3
I01
sg10
L5L
sa(dp49
g1
V__ne__
p50
sg3
I01
sg10
L5L
sa(dp51
g1
V__new__
p52
sg3
I01
sg10
L2L
sg4
VCreate and return a new object.  See help(type) for accurate signature.
p53
sa(dp54
g1
V__reduce__
p55
sg3
I01
sg10
L2L
sg4
Nsa(dp56
g1
V__reduce_ex__
p57
sg3
I01
sg10
L2L
sg4
Vhelper for pickle
p58
sa(dp59
g1
V__repr__
p60
sg3
I01
sg10
L5L
sa(dp61
g1
V__setattr__
p62
sg3
I01
sg10
L5L
sa(dp63
g1
V__setstate__
p64
sg3
I01
sg10
L2L
sg4
Nsa(dp65
g1
V__sizeof__
p66
sg3
I01
sg10
L2L
sg4
V__sizeof__() -> int\u000asize of object in memory, in bytes
p67
sa(dp68
g1
V__str__
p69
sg3
I01
sg10
L5L
sa(dp70
g1
V__subclasshook__
p71
sg3
I01
sg10
L2L
sg4
VAbstract classes can override this to customize issubclass().\u000a\u000aThis is invoked early on by abc.ABCMeta.__subclasscheck__().\u000aIt should return True, False or NotImplemented.  If it returns\u000aNotImplemented, the normal algorithm is used.  Otherwise, it\u000aoverrides the normal algorithm (and the outcome is cached).\u000a
p72
sa(dp73
g1
V__suppress_context__
p74
sg3
I01
sg10
L5L
sa(dp75
g1
V__traceback__
p76
sg3
I01
sg10
L5L
sa(dp77
g1
V__weakref__
p78
sg3
I01
sg10
L5L
sa(dp79
g1
Vargs
p80
sg3
I01
sg10
L5L
sa(dp81
g1
Vwith_traceback
p82
sg3
I01
sg10
L2L
sg4
VException.with_traceback(tb) --\u000a    set self.__traceback__ to tb and return self.
p83
sasg4
Nsa(dp84
g1
VIncomplete
p85
sg3
I01
sg10
L3L
sg6
(lp86
(dp87
g1
g13
sg3
I01
sg10
L5L
sa(dp88
g1
g15
sg3
I01
sg10
L5L
sa(dp89
g1
g17
sg3
I01
sg10
L5L
sa(dp90
g1
g19
sg3
I01
sg10
L5L
sa(dp91
g1
g21
sg3
I01
sg10
L2L
sg4
V__dir__() -> list\u000adefault dir() implementation
p92
sa(dp93
g1
g24
sg3
I01
sg10
L5L
sa(dp94
g1
g26
sg3
I01
sg10
L5L
sa(dp95
g1
g28
sg3
I01
sg10
L2L
sg4
Vdefault object formatter
p96
sa(dp97
g1
g31
sg3
I01
sg10
L5L
sa(dp98
g1
g33
sg3
I01
sg10
L5L
sa(dp99
g1
g35
sg3
I01
sg10
L5L
sa(dp100
g1
g37
sg3
I01
sg10
L5L
sa(dp101
g1
g39
sg3
I01
sg10
L5L
sa(dp102
g1
g41
sg3
I01
sg10
L2L
sg4
VThis method is called when a class is subclassed.\u000a\u000aThe default implementation does nothing. It may be\u000aoverridden to extend subclasses.\u000a
p103
sa(dp104
g1
g44
sg3
I01
sg10
L5L
sa(dp105
g1
g46
sg3
I01
sg10
L5L
sa(dp106
g1
g48
sg3
I01
sg10
L5L
sa(dp107
g1
g50
sg3
I01
sg10
L5L
sa(dp108
g1
g52
sg3
I01
sg10
L2L
sg4
VCreate and return a new object.  See help(type) for accurate signature.
p109
sa(dp110
g1
g55
sg3
I01
sg10
L2L
sg4
Nsa(dp111
g1
g57
sg3
I01
sg10
L2L
sg4
Vhelper for pickle
p112
sa(dp113
g1
g60
sg3
I01
sg10
L5L
sa(dp114
g1
g62
sg3
I01
sg10
L5L
sa(dp115
g1
g64
sg3
I01
sg10
L2L
sg4
Nsa(dp116
g1
g66
sg3
I01
sg10
L2L
sg4
V__sizeof__() -> int\u000asize of object in memory, in bytes
p117
sa(dp118
g1
g69
sg3
I01
sg10
L5L
sa(dp119
g1
g71
sg3
I01
sg10
L2L
sg4
VAbstract classes can override this to customize issubclass().\u000a\u000aThis is invoked early on by abc.ABCMeta.__subclasscheck__().\u000aIt should return True, False or NotImplemented.  If it returns\u000aNotImplemented, the normal algorithm is used.  Otherwise, it\u000aoverrides the normal algorithm (and the outcome is cached).\u000a
p120
sa(dp121
g1
g74
sg3
I01
sg10
L5L
sa(dp122
g1
g76
sg3
I01
sg10
L5L
sa(dp123
g1
g78
sg3
I01
sg10
L5L
sa(dp124
g1
g80
sg3
I01
sg10
L5L
sa(dp125
g1
g82
sg3
I01
sg10
L2L
sg4
VException.with_traceback(tb) --\u000a    set self.__traceback__ to tb and return self.
p126
sasg4
Nsa(dp127
g1
g24
sg3
I01
sg10
L5L
sa(dp128
g1
V__loader__
p129
sg3
I01
sg10
L3L
sg6
(lp130
(dp131
g1
g17
sg3
I01
sg10
L5L
sa(dp132
g1
g19
sg3
I01
sg10
L5L
sa(dp133
g1
g21
sg3
I01
sg10
L2L
sg4
V__dir__() -> list\u000adefault dir() implementation
p134
sa(dp135
g1
g24
sg3
I01
sg10
L5L
sa(dp136
g1
g26
sg3
I01
sg10
L5L
sa(dp137
g1
g28
sg3
I01
sg10
L2L
sg4
Vdefault object formatter
p138
sa(dp139
g1
g31
sg3
I01
sg10
L5L
sa(dp140
g1
g33
sg3
I01
sg10
L5L
sa(dp141
g1
g35
sg3
I01
sg10
L5L
sa(dp142
g1
g37
sg3
I01
sg10
L5L
sa(dp143
g1
g39
sg3
I01
sg10
L5L
sa(dp144
g1
g41
sg3
I01
sg10
L2L
sg4
VThis method is called when a class is subclassed.\u000a\u000aThe default implementation does nothing. It may be\u000aoverridden to extend subclasses.\u000a
p145
sa(dp146
g1
g44
sg3
I01
sg10
L5L
sa(dp147
g1
g46
sg3
I01
sg10
L5L
sa(dp148
g1
g48
sg3
I01
sg10
L5L
sa(dp149
g1
g50
sg3
I01
sg10
L5L
sa(dp150
g1
g52
sg3
I01
sg10
L2L
sg4
VCreate and return a new object.  See help(type) for accurate signature.
p151
sa(dp152
g1
g55
sg3
I01
sg10
L2L
sg4
Vhelper for pickle
p153
sa(dp154
g1
g57
sg3
I01
sg10
L2L
sg4
Vhelper for pickle
p155
sa(dp156
g1
g60
sg3
I01
sg10
L5L
sa(dp157
g1
g62
sg3
I01
sg10
L5L
sa(dp158
g1
g66
sg3
I01
sg10
L2L
sg4
V__sizeof__() -> int\u000asize of object in memory, in bytes
p159
sa(dp160
g1
g69
sg3
I01
sg10
L5L
sa(dp161
g1
g71
sg3
I01
sg10
L2L
sg4
VAbstract classes can override this to customize issubclass().\u000a\u000aThis is invoked early on by abc.ABCMeta.__subclasscheck__().\u000aIt should return True, False or NotImplemented.  If it returns\u000aNotImplemented, the normal algorithm is used.  Otherwise, it\u000aoverrides the normal algorithm (and the outcome is cached).\u000a
p162
sa(dp163
g1
g78
sg3
I01
sg10
L5L
sa(dp164
g1
Vcreate_module
p165
sg3
I01
sg10
L5L
sa(dp166
g1
Vexec_module
p167
sg3
I01
sg10
L5L
sa(dp168
g1
Vfind_module
p169
sg3
I01
sg10
L5L
sa(dp170
g1
Vfind_spec
p171
sg3
I01
sg10
L5L
sa(dp172
g1
Vget_code
p173
sg3
I01
sg10
L5L
sa(dp174
g1
Vget_source
p175
sg3
I01
sg10
L5L
sa(dp176
g1
Vis_package
p177
sg3
I01
sg10
L5L
sa(dp178
g1
Vload_module
p179
sg3
I01
sg10
L5L
sa(dp180
g1
Vmodule_repr
p181
sg3
I01
sg10
L5L
sasg4
VMeta path import for built-in modules.\u000a\u000a    All methods are either class or static methods to avoid the need to\u000a    instantiate the class.\u000a\u000a    
p182
sa(dp183
g1
V__name__
p184
sg3
I01
sg10
L5L
sa(dp185
g1
V__package__
p186
sg3
I01
sg10
L5L
sa(dp187
g1
V__spec__
p188
sg3
I01
sg10
L5L
sa(dp189
g1
Va2b_base64
p190
sg3
I01
sg10
L2L
sg4
VDecode a line of base64 data.
p191
sa(dp192
g1
Va2b_hex
p193
sg3
I01
sg10
L2L
sg4
VBinary data of hexadecimal representation.\u000a\u000ahexstr must contain an even number of hex digits (upper or lower case).\u000aThis function is also available as "unhexlify()".
p194
sa(dp195
g1
Va2b_hqx
p196
sg3
I01
sg10
L2L
sg4
VDecode .hqx coding.
p197
sa(dp198
g1
Va2b_qp
p199
sg3
I01
sg10
L2L
sg4
VDecode a string of qp-encoded data.
p200
sa(dp201
g1
Va2b_uu
p202
sg3
I01
sg10
L2L
sg4
VDecode a line of uuencoded data.
p203
sa(dp204
g1
Vb2a_base64
p205
sg3
I01
sg10
L2L
sg4
VBase64-code line of data.
p206
sa(dp207
g1
Vb2a_hex
p208
sg3
I01
sg10
L2L
sg4
VHexadecimal representation of binary data.\u000a\u000aThe return value is a bytes object.  This function is also\u000aavailable as "hexlify()".
p209
sa(dp210
g1
Vb2a_hqx
p211
sg3
I01
sg10
L2L
sg4
VEncode .hqx data.
p212
sa(dp213
g1
Vb2a_qp
p214
sg3
I01
sg10
L2L
sg4
VEncode a string using quoted-printable encoding.\u000a\u000aOn encoding, when istext is set, newlines are not encoded, and white\u000aspace at end of lines is.  When istext is not set, \u005cr and \u005cn (CR/LF)\u000aare both encoded.  When quotetabs is set, space and tabs are encoded.
p215
sa(dp216
g1
Vb2a_uu
p217
sg3
I01
sg10
L2L
sg4
VUuencode line of data.
p218
sa(dp219
g1
Vcrc32
p220
sg3
I01
sg10
L2L
sg4
VCompute CRC-32 incrementally.
p221
sa(dp222
g1
Vcrc_hqx
p223
sg3
I01
sg10
L2L
sg4
VCompute CRC-CCITT incrementally.
p224
sa(dp225
g1
Vhexlify
p226
sg3
I01
sg10
L2L
sg4
VHexadecimal representation of binary data.\u000a\u000aThe return value is a bytes object.
p227
sa(dp228
g1
Vrlecode_hqx
p229
sg3
I01
sg10
L2L
sg4
VBinhex RLE-code binary data.
p230
sa(dp231
g1
Vrledecode_hqx
p232
sg3
I01
sg10
L2L
sg4
VDecode hexbin RLE-coded string.
p233
sa(dp234
g1
Vunhexlify
p235
sg3
I01
sg10
L2L
sg4
VBinary data of hexadecimal representation.\u000a\u000ahexstr must contain an even number of hex digits (upper or lower case).
p236
sasg10
L1L
s.