(dp0
Vname
p1
Verrno
p2
sVis_builtin
p3
I01
sVdoc
p4
VThis module makes available standard errno system symbols.\u000a\u000aThe value of each symbol is the corresponding integer value,\u000ae.g., on most systems, errno.ENOENT equals the integer 2.\u000a\u000aThe dictionary errno.errorcode maps numeric codes to symbol names,\u000ae.g., errno.errorcode[2] could be the string 'ENOENT'.\u000a\u000aSymbols that are not relevant to the underlying system are not defined.\u000a\u000aTo map error codes to error messages, use the function os.strerror(),\u000ae.g. os.strerror(2) could return 'No such file or directory'.
p5
sVchilds
p6
(lp7
(dp8
g1
VE2BIG
p9
sg3
I01
sVtype
p10
L5L
sa(dp11
g1
VEACCES
p12
sg3
I01
sg10
L5L
sa(dp13
g1
VEADDRINUSE
p14
sg3
I01
sg10
L5L
sa(dp15
g1
VEADDRNOTAVAIL
p16
sg3
I01
sg10
L5L
sa(dp17
g1
VEAFNOSUPPORT
p18
sg3
I01
sg10
L5L
sa(dp19
g1
VEAGAIN
p20
sg3
I01
sg10
L5L
sa(dp21
g1
VEALREADY
p22
sg3
I01
sg10
L5L
sa(dp23
g1
VEBADF
p24
sg3
I01
sg10
L5L
sa(dp25
g1
VEBADMSG
p26
sg3
I01
sg10
L5L
sa(dp27
g1
VEBUSY
p28
sg3
I01
sg10
L5L
sa(dp29
g1
VECANCELED
p30
sg3
I01
sg10
L5L
sa(dp31
g1
VECHILD
p32
sg3
I01
sg10
L5L
sa(dp33
g1
VECONNABORTED
p34
sg3
I01
sg10
L5L
sa(dp35
g1
VECONNREFUSED
p36
sg3
I01
sg10
L5L
sa(dp37
g1
VECONNRESET
p38
sg3
I01
sg10
L5L
sa(dp39
g1
VEDEADLK
p40
sg3
I01
sg10
L5L
sa(dp41
g1
VEDEADLOCK
p42
sg3
I01
sg10
L5L
sa(dp43
g1
VEDESTADDRREQ
p44
sg3
I01
sg10
L5L
sa(dp45
g1
VEDOM
p46
sg3
I01
sg10
L5L
sa(dp47
g1
VEDQUOT
p48
sg3
I01
sg10
L5L
sa(dp49
g1
VEEXIST
p50
sg3
I01
sg10
L5L
sa(dp51
g1
VEFAULT
p52
sg3
I01
sg10
L5L
sa(dp53
g1
VEFBIG
p54
sg3
I01
sg10
L5L
sa(dp55
g1
VEHOSTDOWN
p56
sg3
I01
sg10
L5L
sa(dp57
g1
VEHOSTUNREACH
p58
sg3
I01
sg10
L5L
sa(dp59
g1
VEIDRM
p60
sg3
I01
sg10
L5L
sa(dp61
g1
VEILSEQ
p62
sg3
I01
sg10
L5L
sa(dp63
g1
VEINPROGRESS
p64
sg3
I01
sg10
L5L
sa(dp65
g1
VEINTR
p66
sg3
I01
sg10
L5L
sa(dp67
g1
VEINVAL
p68
sg3
I01
sg10
L5L
sa(dp69
g1
VEIO
p70
sg3
I01
sg10
L5L
sa(dp71
g1
VEISCONN
p72
sg3
I01
sg10
L5L
sa(dp73
g1
VEISDIR
p74
sg3
I01
sg10
L5L
sa(dp75
g1
VELOOP
p76
sg3
I01
sg10
L5L
sa(dp77
g1
VEMFILE
p78
sg3
I01
sg10
L5L
sa(dp79
g1
VEMLINK
p80
sg3
I01
sg10
L5L
sa(dp81
g1
VEMSGSIZE
p82
sg3
I01
sg10
L5L
sa(dp83
g1
VENAMETOOLONG
p84
sg3
I01
sg10
L5L
sa(dp85
g1
VENETDOWN
p86
sg3
I01
sg10
L5L
sa(dp87
g1
VENETRESET
p88
sg3
I01
sg10
L5L
sa(dp89
g1
VENETUNREACH
p90
sg3
I01
sg10
L5L
sa(dp91
g1
VENFILE
p92
sg3
I01
sg10
L5L
sa(dp93
g1
VENOBUFS
p94
sg3
I01
sg10
L5L
sa(dp95
g1
VENODATA
p96
sg3
I01
sg10
L5L
sa(dp97
g1
VENODEV
p98
sg3
I01
sg10
L5L
sa(dp99
g1
VENOENT
p100
sg3
I01
sg10
L5L
sa(dp101
g1
VENOEXEC
p102
sg3
I01
sg10
L5L
sa(dp103
g1
VENOLCK
p104
sg3
I01
sg10
L5L
sa(dp105
g1
VENOLINK
p106
sg3
I01
sg10
L5L
sa(dp107
g1
VENOMEM
p108
sg3
I01
sg10
L5L
sa(dp109
g1
VENOMSG
p110
sg3
I01
sg10
L5L
sa(dp111
g1
VENOPROTOOPT
p112
sg3
I01
sg10
L5L
sa(dp113
g1
VENOSPC
p114
sg3
I01
sg10
L5L
sa(dp115
g1
VENOSR
p116
sg3
I01
sg10
L5L
sa(dp117
g1
VENOSTR
p118
sg3
I01
sg10
L5L
sa(dp119
g1
VENOSYS
p120
sg3
I01
sg10
L5L
sa(dp121
g1
VENOTCONN
p122
sg3
I01
sg10
L5L
sa(dp123
g1
VENOTDIR
p124
sg3
I01
sg10
L5L
sa(dp125
g1
VENOTEMPTY
p126
sg3
I01
sg10
L5L
sa(dp127
g1
VENOTRECOVERABLE
p128
sg3
I01
sg10
L5L
sa(dp129
g1
VENOTSOCK
p130
sg3
I01
sg10
L5L
sa(dp131
g1
VENOTSUP
p132
sg3
I01
sg10
L5L
sa(dp133
g1
VENOTTY
p134
sg3
I01
sg10
L5L
sa(dp135
g1
VENXIO
p136
sg3
I01
sg10
L5L
sa(dp137
g1
VEOPNOTSUPP
p138
sg3
I01
sg10
L5L
sa(dp139
g1
VEOVERFLOW
p140
sg3
I01
sg10
L5L
sa(dp141
g1
VEOWNERDEAD
p142
sg3
I01
sg10
L5L
sa(dp143
g1
VEPERM
p144
sg3
I01
sg10
L5L
sa(dp145
g1
VEPFNOSUPPORT
p146
sg3
I01
sg10
L5L
sa(dp147
g1
VEPIPE
p148
sg3
I01
sg10
L5L
sa(dp149
g1
VEPROTO
p150
sg3
I01
sg10
L5L
sa(dp151
g1
VEPROTONOSUPPORT
p152
sg3
I01
sg10
L5L
sa(dp153
g1
VEPROTOTYPE
p154
sg3
I01
sg10
L5L
sa(dp155
g1
VERANGE
p156
sg3
I01
sg10
L5L
sa(dp157
g1
VEREMOTE
p158
sg3
I01
sg10
L5L
sa(dp159
g1
VEROFS
p160
sg3
I01
sg10
L5L
sa(dp161
g1
VESHUTDOWN
p162
sg3
I01
sg10
L5L
sa(dp163
g1
VESOCKTNOSUPPORT
p164
sg3
I01
sg10
L5L
sa(dp165
g1
VESPIPE
p166
sg3
I01
sg10
L5L
sa(dp167
g1
VESRCH
p168
sg3
I01
sg10
L5L
sa(dp169
g1
VESTALE
p170
sg3
I01
sg10
L5L
sa(dp171
g1
VETIME
p172
sg3
I01
sg10
L5L
sa(dp173
g1
VETIMEDOUT
p174
sg3
I01
sg10
L5L
sa(dp175
g1
VETOOMANYREFS
p176
sg3
I01
sg10
L5L
sa(dp177
g1
VETXTBSY
p178
sg3
I01
sg10
L5L
sa(dp179
g1
VEUSERS
p180
sg3
I01
sg10
L5L
sa(dp181
g1
VEWOULDBLOCK
p182
sg3
I01
sg10
L5L
sa(dp183
g1
VEXDEV
p184
sg3
I01
sg10
L5L
sa(dp185
g1
VWSABASEERR
p186
sg3
I01
sg10
L5L
sa(dp187
g1
VWSAEACCES
p188
sg3
I01
sg10
L5L
sa(dp189
g1
VWSAEADDRINUSE
p190
sg3
I01
sg10
L5L
sa(dp191
g1
VWSAEADDRNOTAVAIL
p192
sg3
I01
sg10
L5L
sa(dp193
g1
VWSAEAFNOSUPPORT
p194
sg3
I01
sg10
L5L
sa(dp195
g1
VWSAEALREADY
p196
sg3
I01
sg10
L5L
sa(dp197
g1
VWSAEBADF
p198
sg3
I01
sg10
L5L
sa(dp199
g1
VWSAECONNABORTED
p200
sg3
I01
sg10
L5L
sa(dp201
g1
VWSAECONNREFUSED
p202
sg3
I01
sg10
L5L
sa(dp203
g1
VWSAECONNRESET
p204
sg3
I01
sg10
L5L
sa(dp205
g1
VWSAEDESTADDRREQ
p206
sg3
I01
sg10
L5L
sa(dp207
g1
VWSAEDISCON
p208
sg3
I01
sg10
L5L
sa(dp209
g1
VWSAEDQUOT
p210
sg3
I01
sg10
L5L
sa(dp211
g1
VWSAEFAULT
p212
sg3
I01
sg10
L5L
sa(dp213
g1
VWSAEHOSTDOWN
p214
sg3
I01
sg10
L5L
sa(dp215
g1
VWSAEHOSTUNREACH
p216
sg3
I01
sg10
L5L
sa(dp217
g1
VWSAEINPROGRESS
p218
sg3
I01
sg10
L5L
sa(dp219
g1
VWSAEINTR
p220
sg3
I01
sg10
L5L
sa(dp221
g1
VWSAEINVAL
p222
sg3
I01
sg10
L5L
sa(dp223
g1
VWSAEISCONN
p224
sg3
I01
sg10
L5L
sa(dp225
g1
VWSAELOOP
p226
sg3
I01
sg10
L5L
sa(dp227
g1
VWSAEMFILE
p228
sg3
I01
sg10
L5L
sa(dp229
g1
VWSAEMSGSIZE
p230
sg3
I01
sg10
L5L
sa(dp231
g1
VWSAENAMETOOLONG
p232
sg3
I01
sg10
L5L
sa(dp233
g1
VWSAENETDOWN
p234
sg3
I01
sg10
L5L
sa(dp235
g1
VWSAENETRESET
p236
sg3
I01
sg10
L5L
sa(dp237
g1
VWSAENETUNREACH
p238
sg3
I01
sg10
L5L
sa(dp239
g1
VWSAENOBUFS
p240
sg3
I01
sg10
L5L
sa(dp241
g1
VWSAENOPROTOOPT
p242
sg3
I01
sg10
L5L
sa(dp243
g1
VWSAENOTCONN
p244
sg3
I01
sg10
L5L
sa(dp245
g1
VWSAENOTEMPTY
p246
sg3
I01
sg10
L5L
sa(dp247
g1
VWSAENOTSOCK
p248
sg3
I01
sg10
L5L
sa(dp249
g1
VWSAEOPNOTSUPP
p250
sg3
I01
sg10
L5L
sa(dp251
g1
VWSAEPFNOSUPPORT
p252
sg3
I01
sg10
L5L
sa(dp253
g1
VWSAEPROCLIM
p254
sg3
I01
sg10
L5L
sa(dp255
g1
VWSAEPROTONOSUPPORT
p256
sg3
I01
sg10
L5L
sa(dp257
g1
VWSAEPROTOTYPE
p258
sg3
I01
sg10
L5L
sa(dp259
g1
VWSAEREMOTE
p260
sg3
I01
sg10
L5L
sa(dp261
g1
VWSAESHUTDOWN
p262
sg3
I01
sg10
L5L
sa(dp263
g1
VWSAESOCKTNOSUPPORT
p264
sg3
I01
sg10
L5L
sa(dp265
g1
VWSAESTALE
p266
sg3
I01
sg10
L5L
sa(dp267
g1
VWSAETIMEDOUT
p268
sg3
I01
sg10
L5L
sa(dp269
g1
VWSAETOOMANYREFS
p270
sg3
I01
sg10
L5L
sa(dp271
g1
VWSAEUSERS
p272
sg3
I01
sg10
L5L
sa(dp273
g1
VWSAEWOULDBLOCK
p274
sg3
I01
sg10
L5L
sa(dp275
g1
VWSANOTINITIALISED
p276
sg3
I01
sg10
L5L
sa(dp277
g1
VWSASYSNOTREADY
p278
sg3
I01
sg10
L5L
sa(dp279
g1
VWSAVERNOTSUPPORTED
p280
sg3
I01
sg10
L5L
sa(dp281
g1
V__doc__
p282
sg3
I01
sg10
L5L
sa(dp283
g1
V__loader__
p284
sg3
I01
sg10
L3L
sg6
(lp285
(dp286
g1
V__delattr__
p287
sg3
I01
sg10
L5L
sa(dp288
g1
V__dict__
p289
sg3
I01
sg10
L5L
sa(dp290
g1
V__dir__
p291
sg3
I01
sg10
L2L
sg4
V__dir__() -> list\u000adefault dir() implementation
p292
sa(dp293
g1
g282
sg3
I01
sg10
L5L
sa(dp294
g1
V__eq__
p295
sg3
I01
sg10
L5L
sa(dp296
g1
V__format__
p297
sg3
I01
sg10
L2L
sg4
Vdefault object formatter
p298
sa(dp299
g1
V__ge__
p300
sg3
I01
sg10
L5L
sa(dp301
g1
V__getattribute__
p302
sg3
I01
sg10
L5L
sa(dp303
g1
V__gt__
p304
sg3
I01
sg10
L5L
sa(dp305
g1
V__hash__
p306
sg3
I01
sg10
L5L
sa(dp307
g1
V__init__
p308
sg3
I01
sg10
L5L
sa(dp309
g1
V__init_subclass__
p310
sg3
I01
sg10
L2L
sg4
VThis method is called when a class is subclassed.\u000a\u000aThe default implementation does nothing. It may be\u000aoverridden to extend subclasses.\u000a
p311
sa(dp312
g1
V__le__
p313
sg3
I01
sg10
L5L
sa(dp314
g1
V__lt__
p315
sg3
I01
sg10
L5L
sa(dp316
g1
V__module__
p317
sg3
I01
sg10
L5L
sa(dp318
g1
V__ne__
p319
sg3
I01
sg10
L5L
sa(dp320
g1
V__new__
p321
sg3
I01
sg10
L2L
sg4
VCreate and return a new object.  See help(type) for accurate signature.
p322
sa(dp323
g1
V__reduce__
p324
sg3
I01
sg10
L2L
sg4
Vhelper for pickle
p325
sa(dp326
g1
V__reduce_ex__
p327
sg3
I01
sg10
L2L
sg4
Vhelper for pickle
p328
sa(dp329
g1
V__repr__
p330
sg3
I01
sg10
L5L
sa(dp331
g1
V__setattr__
p332
sg3
I01
sg10
L5L
sa(dp333
g1
V__sizeof__
p334
sg3
I01
sg10
L2L
sg4
V__sizeof__() -> int\u000asize of object in memory, in bytes
p335
sa(dp336
g1
V__str__
p337
sg3
I01
sg10
L5L
sa(dp338
g1
V__subclasshook__
p339
sg3
I01
sg10
L2L
sg4
VAbstract classes can override this to customize issubclass().\u000a\u000aThis is invoked early on by abc.ABCMeta.__subclasscheck__().\u000aIt should return True, False or NotImplemented.  If it returns\u000aNotImplemented, the normal algorithm is used.  Otherwise, it\u000aoverrides the normal algorithm (and the outcome is cached).\u000a
p340
sa(dp341
g1
V__weakref__
p342
sg3
I01
sg10
L5L
sa(dp343
g1
Vcreate_module
p344
sg3
I01
sg10
L5L
sa(dp345
g1
Vexec_module
p346
sg3
I01
sg10
L5L
sa(dp347
g1
Vfind_module
p348
sg3
I01
sg10
L5L
sa(dp349
g1
Vfind_spec
p350
sg3
I01
sg10
L5L
sa(dp351
g1
Vget_code
p352
sg3
I01
sg10
L5L
sa(dp353
g1
Vget_source
p354
sg3
I01
sg10
L5L
sa(dp355
g1
Vis_package
p356
sg3
I01
sg10
L5L
sa(dp357
g1
Vload_module
p358
sg3
I01
sg10
L5L
sa(dp359
g1
Vmodule_repr
p360
sg3
I01
sg10
L5L
sasg4
VMeta path import for built-in modules.\u000a\u000a    All methods are either class or static methods to avoid the need to\u000a    instantiate the class.\u000a\u000a    
p361
sa(dp362
g1
V__name__
p363
sg3
I01
sg10
L5L
sa(dp364
g1
V__package__
p365
sg3
I01
sg10
L5L
sa(dp366
g1
V__spec__
p367
sg3
I01
sg10
L5L
sa(dp368
g1
Verrorcode
p369
sg3
I01
sg10
L5L
sasg10
L1L
s.