(dp0
Vname
p1
Vitertools
p2
sVis_builtin
p3
I01
sVdoc
p4
VFunctional tools for creating and using iterators.\u000a\u000aInfinite iterators:\u000acount(start=0, step=1) --> start, start+step, start+2*step, ...\u000acycle(p) --> p0, p1, ... plast, p0, p1, ...\u000arepeat(elem [,n]) --> elem, elem, elem, ... endlessly or up to n times\u000a\u000aIterators terminating on the shortest input sequence:\u000aaccumulate(p[, func]) --> p0, p0+p1, p0+p1+p2\u000achain(p, q, ...) --> p0, p1, ... plast, q0, q1, ... \u000achain.from_iterable([p, q, ...]) --> p0, p1, ... plast, q0, q1, ... \u000acompress(data, selectors) --> (d[0] if s[0]), (d[1] if s[1]), ...\u000adropwhile(pred, seq) --> seq[n], seq[n+1], starting when pred fails\u000agroupby(iterable[, keyfunc]) --> sub-iterators grouped by value of keyfunc(v)\u000afilterfalse(pred, seq) --> elements of seq where pred(elem) is False\u000aislice(seq, [start,] stop [, step]) --> elements from\u000a       seq[start:stop:step]\u000astarmap(fun, seq) --> fun(*seq[0]), fun(*seq[1]), ...\u000atee(it, n=2) --> (it1, it2 , ... itn) splits one iterator into n\u000atakewhile(pred, seq) --> seq[0], seq[1], until pred fails\u000azip_longest(p, q, ...) --> (p[0], q[0]), (p[1], q[1]), ... \u000a\u000aCombinatoric generators:\u000aproduct(p, q, ... [repeat=1]) --> cartesian product\u000apermutations(p[, r])\u000acombinations(p, r)\u000acombinations_with_replacement(p, r)\u000a
p5
sVchilds
p6
(lp7
(dp8
g1
V__doc__
p9
sg3
I01
sVtype
p10
L5L
sa(dp11
g1
V__loader__
p12
sg3
I01
sg10
L3L
sg6
(lp13
(dp14
g1
V__delattr__
p15
sg3
I01
sg10
L5L
sa(dp16
g1
V__dict__
p17
sg3
I01
sg10
L5L
sa(dp18
g1
V__dir__
p19
sg3
I01
sg10
L2L
sg4
V__dir__() -> list\u000adefault dir() implementation
p20
sa(dp21
g1
g9
sg3
I01
sg10
L5L
sa(dp22
g1
V__eq__
p23
sg3
I01
sg10
L5L
sa(dp24
g1
V__format__
p25
sg3
I01
sg10
L2L
sg4
Vdefault object formatter
p26
sa(dp27
g1
V__ge__
p28
sg3
I01
sg10
L5L
sa(dp29
g1
V__getattribute__
p30
sg3
I01
sg10
L5L
sa(dp31
g1
V__gt__
p32
sg3
I01
sg10
L5L
sa(dp33
g1
V__hash__
p34
sg3
I01
sg10
L5L
sa(dp35
g1
V__init__
p36
sg3
I01
sg10
L5L
sa(dp37
g1
V__init_subclass__
p38
sg3
I01
sg10
L2L
sg4
VThis method is called when a class is subclassed.\u000a\u000aThe default implementation does nothing. It may be\u000aoverridden to extend subclasses.\u000a
p39
sa(dp40
g1
V__le__
p41
sg3
I01
sg10
L5L
sa(dp42
g1
V__lt__
p43
sg3
I01
sg10
L5L
sa(dp44
g1
V__module__
p45
sg3
I01
sg10
L5L
sa(dp46
g1
V__ne__
p47
sg3
I01
sg10
L5L
sa(dp48
g1
V__new__
p49
sg3
I01
sg10
L2L
sg4
VCreate and return a new object.  See help(type) for accurate signature.
p50
sa(dp51
g1
V__reduce__
p52
sg3
I01
sg10
L2L
sg4
Vhelper for pickle
p53
sa(dp54
g1
V__reduce_ex__
p55
sg3
I01
sg10
L2L
sg4
Vhelper for pickle
p56
sa(dp57
g1
V__repr__
p58
sg3
I01
sg10
L5L
sa(dp59
g1
V__setattr__
p60
sg3
I01
sg10
L5L
sa(dp61
g1
V__sizeof__
p62
sg3
I01
sg10
L2L
sg4
V__sizeof__() -> int\u000asize of object in memory, in bytes
p63
sa(dp64
g1
V__str__
p65
sg3
I01
sg10
L5L
sa(dp66
g1
V__subclasshook__
p67
sg3
I01
sg10
L2L
sg4
VAbstract classes can override this to customize issubclass().\u000a\u000aThis is invoked early on by abc.ABCMeta.__subclasscheck__().\u000aIt should return True, False or NotImplemented.  If it returns\u000aNotImplemented, the normal algorithm is used.  Otherwise, it\u000aoverrides the normal algorithm (and the outcome is cached).\u000a
p68
sa(dp69
g1
V__weakref__
p70
sg3
I01
sg10
L5L
sa(dp71
g1
Vcreate_module
p72
sg3
I01
sg10
L5L
sa(dp73
g1
Vexec_module
p74
sg3
I01
sg10
L5L
sa(dp75
g1
Vfind_module
p76
sg3
I01
sg10
L5L
sa(dp77
g1
Vfind_spec
p78
sg3
I01
sg10
L5L
sa(dp79
g1
Vget_code
p80
sg3
I01
sg10
L5L
sa(dp81
g1
Vget_source
p82
sg3
I01
sg10
L5L
sa(dp83
g1
Vis_package
p84
sg3
I01
sg10
L5L
sa(dp85
g1
Vload_module
p86
sg3
I01
sg10
L5L
sa(dp87
g1
Vmodule_repr
p88
sg3
I01
sg10
L5L
sasg4
VMeta path import for built-in modules.\u000a\u000a    All methods are either class or static methods to avoid the need to\u000a    instantiate the class.\u000a\u000a    
p89
sa(dp90
g1
V__name__
p91
sg3
I01
sg10
L5L
sa(dp92
g1
V__package__
p93
sg3
I01
sg10
L5L
sa(dp94
g1
V__spec__
p95
sg3
I01
sg10
L5L
sa(dp96
g1
V_grouper
p97
sg3
I01
sg10
L3L
sg6
(lp98
(dp99
g1
g15
sg3
I01
sg10
L5L
sa(dp100
g1
g19
sg3
I01
sg10
L2L
sg4
V__dir__() -> list\u000adefault dir() implementation
p101
sa(dp102
g1
g9
sg3
I01
sg10
L5L
sa(dp103
g1
g23
sg3
I01
sg10
L5L
sa(dp104
g1
g25
sg3
I01
sg10
L2L
sg4
Vdefault object formatter
p105
sa(dp106
g1
g28
sg3
I01
sg10
L5L
sa(dp107
g1
g30
sg3
I01
sg10
L5L
sa(dp108
g1
g32
sg3
I01
sg10
L5L
sa(dp109
g1
g34
sg3
I01
sg10
L5L
sa(dp110
g1
g36
sg3
I01
sg10
L5L
sa(dp111
g1
g38
sg3
I01
sg10
L2L
sg4
VThis method is called when a class is subclassed.\u000a\u000aThe default implementation does nothing. It may be\u000aoverridden to extend subclasses.\u000a
p112
sa(dp113
g1
V__iter__
p114
sg3
I01
sg10
L5L
sa(dp115
g1
g41
sg3
I01
sg10
L5L
sa(dp116
g1
g43
sg3
I01
sg10
L5L
sa(dp117
g1
g47
sg3
I01
sg10
L5L
sa(dp118
g1
g49
sg3
I01
sg10
L2L
sg4
VCreate and return a new object.  See help(type) for accurate signature.
p119
sa(dp120
g1
V__next__
p121
sg3
I01
sg10
L5L
sa(dp122
g1
g52
sg3
I01
sg10
L2L
sg4
VReturn state information for pickling.
p123
sa(dp124
g1
g55
sg3
I01
sg10
L2L
sg4
Vhelper for pickle
p125
sa(dp126
g1
g58
sg3
I01
sg10
L5L
sa(dp127
g1
g60
sg3
I01
sg10
L5L
sa(dp128
g1
g62
sg3
I01
sg10
L2L
sg4
V__sizeof__() -> int\u000asize of object in memory, in bytes
p129
sa(dp130
g1
g65
sg3
I01
sg10
L5L
sa(dp131
g1
g67
sg3
I01
sg10
L2L
sg4
VAbstract classes can override this to customize issubclass().\u000a\u000aThis is invoked early on by abc.ABCMeta.__subclasscheck__().\u000aIt should return True, False or NotImplemented.  If it returns\u000aNotImplemented, the normal algorithm is used.  Otherwise, it\u000aoverrides the normal algorithm (and the outcome is cached).\u000a
p132
sasg4
Nsa(dp133
g1
V_tee
p134
sg3
I01
sg10
L3L
sg6
(lp135
(dp136
g1
V__copy__
p137
sg3
I01
sg10
L2L
sg4
VReturns an independent iterator.
p138
sa(dp139
g1
g15
sg3
I01
sg10
L5L
sa(dp140
g1
g19
sg3
I01
sg10
L2L
sg4
V__dir__() -> list\u000adefault dir() implementation
p141
sa(dp142
g1
g9
sg3
I01
sg10
L5L
sa(dp143
g1
g23
sg3
I01
sg10
L5L
sa(dp144
g1
g25
sg3
I01
sg10
L2L
sg4
Vdefault object formatter
p145
sa(dp146
g1
g28
sg3
I01
sg10
L5L
sa(dp147
g1
g30
sg3
I01
sg10
L5L
sa(dp148
g1
g32
sg3
I01
sg10
L5L
sa(dp149
g1
g34
sg3
I01
sg10
L5L
sa(dp150
g1
g36
sg3
I01
sg10
L5L
sa(dp151
g1
g38
sg3
I01
sg10
L2L
sg4
VThis method is called when a class is subclassed.\u000a\u000aThe default implementation does nothing. It may be\u000aoverridden to extend subclasses.\u000a
p152
sa(dp153
g1
g114
sg3
I01
sg10
L5L
sa(dp154
g1
g41
sg3
I01
sg10
L5L
sa(dp155
g1
g43
sg3
I01
sg10
L5L
sa(dp156
g1
g47
sg3
I01
sg10
L5L
sa(dp157
g1
g49
sg3
I01
sg10
L2L
sg4
VCreate and return a new object.  See help(type) for accurate signature.
p158
sa(dp159
g1
g121
sg3
I01
sg10
L5L
sa(dp160
g1
g52
sg3
I01
sg10
L2L
sg4
VReturn state information for pickling.
p161
sa(dp162
g1
g55
sg3
I01
sg10
L2L
sg4
Vhelper for pickle
p163
sa(dp164
g1
g58
sg3
I01
sg10
L5L
sa(dp165
g1
g60
sg3
I01
sg10
L5L
sa(dp166
g1
V__setstate__
p167
sg3
I01
sg10
L2L
sg4
VSet state information for unpickling.
p168
sa(dp169
g1
g62
sg3
I01
sg10
L2L
sg4
V__sizeof__() -> int\u000asize of object in memory, in bytes
p170
sa(dp171
g1
g65
sg3
I01
sg10
L5L
sa(dp172
g1
g67
sg3
I01
sg10
L2L
sg4
VAbstract classes can override this to customize issubclass().\u000a\u000aThis is invoked early on by abc.ABCMeta.__subclasscheck__().\u000aIt should return True, False or NotImplemented.  If it returns\u000aNotImplemented, the normal algorithm is used.  Otherwise, it\u000aoverrides the normal algorithm (and the outcome is cached).\u000a
p173
sasg4
VIterator wrapped to make it copyable
p174
sa(dp175
g1
V_tee_dataobject
p176
sg3
I01
sg10
L3L
sg6
(lp177
(dp178
g1
g15
sg3
I01
sg10
L5L
sa(dp179
g1
g19
sg3
I01
sg10
L2L
sg4
V__dir__() -> list\u000adefault dir() implementation
p180
sa(dp181
g1
g9
sg3
I01
sg10
L5L
sa(dp182
g1
g23
sg3
I01
sg10
L5L
sa(dp183
g1
g25
sg3
I01
sg10
L2L
sg4
Vdefault object formatter
p184
sa(dp185
g1
g28
sg3
I01
sg10
L5L
sa(dp186
g1
g30
sg3
I01
sg10
L5L
sa(dp187
g1
g32
sg3
I01
sg10
L5L
sa(dp188
g1
g34
sg3
I01
sg10
L5L
sa(dp189
g1
g36
sg3
I01
sg10
L5L
sa(dp190
g1
g38
sg3
I01
sg10
L2L
sg4
VThis method is called when a class is subclassed.\u000a\u000aThe default implementation does nothing. It may be\u000aoverridden to extend subclasses.\u000a
p191
sa(dp192
g1
g41
sg3
I01
sg10
L5L
sa(dp193
g1
g43
sg3
I01
sg10
L5L
sa(dp194
g1
g47
sg3
I01
sg10
L5L
sa(dp195
g1
g49
sg3
I01
sg10
L2L
sg4
VCreate and return a new object.  See help(type) for accurate signature.
p196
sa(dp197
g1
g52
sg3
I01
sg10
L2L
sg4
VReturn state information for pickling.
p198
sa(dp199
g1
g55
sg3
I01
sg10
L2L
sg4
Vhelper for pickle
p200
sa(dp201
g1
g58
sg3
I01
sg10
L5L
sa(dp202
g1
g60
sg3
I01
sg10
L5L
sa(dp203
g1
g62
sg3
I01
sg10
L2L
sg4
V__sizeof__() -> int\u000asize of object in memory, in bytes
p204
sa(dp205
g1
g65
sg3
I01
sg10
L5L
sa(dp206
g1
g67
sg3
I01
sg10
L2L
sg4
VAbstract classes can override this to customize issubclass().\u000a\u000aThis is invoked early on by abc.ABCMeta.__subclasscheck__().\u000aIt should return True, False or NotImplemented.  If it returns\u000aNotImplemented, the normal algorithm is used.  Otherwise, it\u000aoverrides the normal algorithm (and the outcome is cached).\u000a
p207
sasg4
VData container common to multiple tee objects.
p208
sa(dp209
g1
Vaccumulate
p210
sg3
I01
sg10
L3L
sg6
(lp211
(dp212
g1
g15
sg3
I01
sg10
L5L
sa(dp213
g1
g19
sg3
I01
sg10
L2L
sg4
V__dir__() -> list\u000adefault dir() implementation
p214
sa(dp215
g1
g9
sg3
I01
sg10
L5L
sa(dp216
g1
g23
sg3
I01
sg10
L5L
sa(dp217
g1
g25
sg3
I01
sg10
L2L
sg4
Vdefault object formatter
p218
sa(dp219
g1
g28
sg3
I01
sg10
L5L
sa(dp220
g1
g30
sg3
I01
sg10
L5L
sa(dp221
g1
g32
sg3
I01
sg10
L5L
sa(dp222
g1
g34
sg3
I01
sg10
L5L
sa(dp223
g1
g36
sg3
I01
sg10
L5L
sa(dp224
g1
g38
sg3
I01
sg10
L2L
sg4
VThis method is called when a class is subclassed.\u000a\u000aThe default implementation does nothing. It may be\u000aoverridden to extend subclasses.\u000a
p225
sa(dp226
g1
g114
sg3
I01
sg10
L5L
sa(dp227
g1
g41
sg3
I01
sg10
L5L
sa(dp228
g1
g43
sg3
I01
sg10
L5L
sa(dp229
g1
g47
sg3
I01
sg10
L5L
sa(dp230
g1
g49
sg3
I01
sg10
L2L
sg4
VCreate and return a new object.  See help(type) for accurate signature.
p231
sa(dp232
g1
g121
sg3
I01
sg10
L5L
sa(dp233
g1
g52
sg3
I01
sg10
L2L
sg4
VReturn state information for pickling.
p234
sa(dp235
g1
g55
sg3
I01
sg10
L2L
sg4
Vhelper for pickle
p236
sa(dp237
g1
g58
sg3
I01
sg10
L5L
sa(dp238
g1
g60
sg3
I01
sg10
L5L
sa(dp239
g1
g167
sg3
I01
sg10
L2L
sg4
VSet state information for unpickling.
p240
sa(dp241
g1
g62
sg3
I01
sg10
L2L
sg4
V__sizeof__() -> int\u000asize of object in memory, in bytes
p242
sa(dp243
g1
g65
sg3
I01
sg10
L5L
sa(dp244
g1
g67
sg3
I01
sg10
L2L
sg4
VAbstract classes can override this to customize issubclass().\u000a\u000aThis is invoked early on by abc.ABCMeta.__subclasscheck__().\u000aIt should return True, False or NotImplemented.  If it returns\u000aNotImplemented, the normal algorithm is used.  Otherwise, it\u000aoverrides the normal algorithm (and the outcome is cached).\u000a
p245
sasg4
Vaccumulate(iterable[, func]) --> accumulate object\u000a\u000aReturn series of accumulated sums (or other binary function results).
p246
sa(dp247
g1
Vchain
p248
sg3
I01
sg10
L3L
sg6
(lp249
(dp250
g1
g15
sg3
I01
sg10
L5L
sa(dp251
g1
g19
sg3
I01
sg10
L2L
sg4
V__dir__() -> list\u000adefault dir() implementation
p252
sa(dp253
g1
g9
sg3
I01
sg10
L5L
sa(dp254
g1
g23
sg3
I01
sg10
L5L
sa(dp255
g1
g25
sg3
I01
sg10
L2L
sg4
Vdefault object formatter
p256
sa(dp257
g1
g28
sg3
I01
sg10
L5L
sa(dp258
g1
g30
sg3
I01
sg10
L5L
sa(dp259
g1
g32
sg3
I01
sg10
L5L
sa(dp260
g1
g34
sg3
I01
sg10
L5L
sa(dp261
g1
g36
sg3
I01
sg10
L5L
sa(dp262
g1
g38
sg3
I01
sg10
L2L
sg4
VThis method is called when a class is subclassed.\u000a\u000aThe default implementation does nothing. It may be\u000aoverridden to extend subclasses.\u000a
p263
sa(dp264
g1
g114
sg3
I01
sg10
L5L
sa(dp265
g1
g41
sg3
I01
sg10
L5L
sa(dp266
g1
g43
sg3
I01
sg10
L5L
sa(dp267
g1
g47
sg3
I01
sg10
L5L
sa(dp268
g1
g49
sg3
I01
sg10
L2L
sg4
VCreate and return a new object.  See help(type) for accurate signature.
p269
sa(dp270
g1
g121
sg3
I01
sg10
L5L
sa(dp271
g1
g52
sg3
I01
sg10
L2L
sg4
VReturn state information for pickling.
p272
sa(dp273
g1
g55
sg3
I01
sg10
L2L
sg4
Vhelper for pickle
p274
sa(dp275
g1
g58
sg3
I01
sg10
L5L
sa(dp276
g1
g60
sg3
I01
sg10
L5L
sa(dp277
g1
g167
sg3
I01
sg10
L2L
sg4
VSet state information for unpickling.
p278
sa(dp279
g1
g62
sg3
I01
sg10
L2L
sg4
V__sizeof__() -> int\u000asize of object in memory, in bytes
p280
sa(dp281
g1
g65
sg3
I01
sg10
L5L
sa(dp282
g1
g67
sg3
I01
sg10
L2L
sg4
VAbstract classes can override this to customize issubclass().\u000a\u000aThis is invoked early on by abc.ABCMeta.__subclasscheck__().\u000aIt should return True, False or NotImplemented.  If it returns\u000aNotImplemented, the normal algorithm is used.  Otherwise, it\u000aoverrides the normal algorithm (and the outcome is cached).\u000a
p283
sa(dp284
g1
Vfrom_iterable
p285
sg3
I01
sg10
L2L
sg4
Vchain.from_iterable(iterable) --> chain object\u000a\u000aAlternate chain() constructor taking a single iterable argument\u000athat evaluates lazily.
p286
sasg4
Vchain(*iterables) --> chain object\u000a\u000aReturn a chain object whose .__next__() method returns elements from the\u000afirst iterable until it is exhausted, then elements from the next\u000aiterable, until all of the iterables are exhausted.
p287
sa(dp288
g1
Vcombinations
p289
sg3
I01
sg10
L3L
sg6
(lp290
(dp291
g1
g15
sg3
I01
sg10
L5L
sa(dp292
g1
g19
sg3
I01
sg10
L2L
sg4
V__dir__() -> list\u000adefault dir() implementation
p293
sa(dp294
g1
g9
sg3
I01
sg10
L5L
sa(dp295
g1
g23
sg3
I01
sg10
L5L
sa(dp296
g1
g25
sg3
I01
sg10
L2L
sg4
Vdefault object formatter
p297
sa(dp298
g1
g28
sg3
I01
sg10
L5L
sa(dp299
g1
g30
sg3
I01
sg10
L5L
sa(dp300
g1
g32
sg3
I01
sg10
L5L
sa(dp301
g1
g34
sg3
I01
sg10
L5L
sa(dp302
g1
g36
sg3
I01
sg10
L5L
sa(dp303
g1
g38
sg3
I01
sg10
L2L
sg4
VThis method is called when a class is subclassed.\u000a\u000aThe default implementation does nothing. It may be\u000aoverridden to extend subclasses.\u000a
p304
sa(dp305
g1
g114
sg3
I01
sg10
L5L
sa(dp306
g1
g41
sg3
I01
sg10
L5L
sa(dp307
g1
g43
sg3
I01
sg10
L5L
sa(dp308
g1
g47
sg3
I01
sg10
L5L
sa(dp309
g1
g49
sg3
I01
sg10
L2L
sg4
VCreate and return a new object.  See help(type) for accurate signature.
p310
sa(dp311
g1
g121
sg3
I01
sg10
L5L
sa(dp312
g1
g52
sg3
I01
sg10
L2L
sg4
VReturn state information for pickling.
p313
sa(dp314
g1
g55
sg3
I01
sg10
L2L
sg4
Vhelper for pickle
p315
sa(dp316
g1
g58
sg3
I01
sg10
L5L
sa(dp317
g1
g60
sg3
I01
sg10
L5L
sa(dp318
g1
g167
sg3
I01
sg10
L2L
sg4
VSet state information for unpickling.
p319
sa(dp320
g1
g62
sg3
I01
sg10
L2L
sg4
VReturns size in memory, in bytes.
p321
sa(dp322
g1
g65
sg3
I01
sg10
L5L
sa(dp323
g1
g67
sg3
I01
sg10
L2L
sg4
VAbstract classes can override this to customize issubclass().\u000a\u000aThis is invoked early on by abc.ABCMeta.__subclasscheck__().\u000aIt should return True, False or NotImplemented.  If it returns\u000aNotImplemented, the normal algorithm is used.  Otherwise, it\u000aoverrides the normal algorithm (and the outcome is cached).\u000a
p324
sasg4
Vcombinations(iterable, r) --> combinations object\u000a\u000aReturn successive r-length combinations of elements in the iterable.\u000a\u000acombinations(range(4), 3) --> (0,1,2), (0,1,3), (0,2,3), (1,2,3)
p325
sa(dp326
g1
Vcombinations_with_replacement
p327
sg3
I01
sg10
L3L
sg6
(lp328
(dp329
g1
g15
sg3
I01
sg10
L5L
sa(dp330
g1
g19
sg3
I01
sg10
L2L
sg4
V__dir__() -> list\u000adefault dir() implementation
p331
sa(dp332
g1
g9
sg3
I01
sg10
L5L
sa(dp333
g1
g23
sg3
I01
sg10
L5L
sa(dp334
g1
g25
sg3
I01
sg10
L2L
sg4
Vdefault object formatter
p335
sa(dp336
g1
g28
sg3
I01
sg10
L5L
sa(dp337
g1
g30
sg3
I01
sg10
L5L
sa(dp338
g1
g32
sg3
I01
sg10
L5L
sa(dp339
g1
g34
sg3
I01
sg10
L5L
sa(dp340
g1
g36
sg3
I01
sg10
L5L
sa(dp341
g1
g38
sg3
I01
sg10
L2L
sg4
VThis method is called when a class is subclassed.\u000a\u000aThe default implementation does nothing. It may be\u000aoverridden to extend subclasses.\u000a
p342
sa(dp343
g1
g114
sg3
I01
sg10
L5L
sa(dp344
g1
g41
sg3
I01
sg10
L5L
sa(dp345
g1
g43
sg3
I01
sg10
L5L
sa(dp346
g1
g47
sg3
I01
sg10
L5L
sa(dp347
g1
g49
sg3
I01
sg10
L2L
sg4
VCreate and return a new object.  See help(type) for accurate signature.
p348
sa(dp349
g1
g121
sg3
I01
sg10
L5L
sa(dp350
g1
g52
sg3
I01
sg10
L2L
sg4
VReturn state information for pickling.
p351
sa(dp352
g1
g55
sg3
I01
sg10
L2L
sg4
Vhelper for pickle
p353
sa(dp354
g1
g58
sg3
I01
sg10
L5L
sa(dp355
g1
g60
sg3
I01
sg10
L5L
sa(dp356
g1
g167
sg3
I01
sg10
L2L
sg4
VSet state information for unpickling.
p357
sa(dp358
g1
g62
sg3
I01
sg10
L2L
sg4
VReturns size in memory, in bytes.
p359
sa(dp360
g1
g65
sg3
I01
sg10
L5L
sa(dp361
g1
g67
sg3
I01
sg10
L2L
sg4
VAbstract classes can override this to customize issubclass().\u000a\u000aThis is invoked early on by abc.ABCMeta.__subclasscheck__().\u000aIt should return True, False or NotImplemented.  If it returns\u000aNotImplemented, the normal algorithm is used.  Otherwise, it\u000aoverrides the normal algorithm (and the outcome is cached).\u000a
p362
sasg4
Vcombinations_with_replacement(iterable, r) --> combinations_with_replacement object\u000a\u000aReturn successive r-length combinations of elements in the iterable\u000aallowing individual elements to have successive repeats.\u000acombinations_with_replacement('ABC', 2) --> AA AB AC BB BC CC
p363
sa(dp364
g1
Vcompress
p365
sg3
I01
sg10
L3L
sg6
(lp366
(dp367
g1
g15
sg3
I01
sg10
L5L
sa(dp368
g1
g19
sg3
I01
sg10
L2L
sg4
V__dir__() -> list\u000adefault dir() implementation
p369
sa(dp370
g1
g9
sg3
I01
sg10
L5L
sa(dp371
g1
g23
sg3
I01
sg10
L5L
sa(dp372
g1
g25
sg3
I01
sg10
L2L
sg4
Vdefault object formatter
p373
sa(dp374
g1
g28
sg3
I01
sg10
L5L
sa(dp375
g1
g30
sg3
I01
sg10
L5L
sa(dp376
g1
g32
sg3
I01
sg10
L5L
sa(dp377
g1
g34
sg3
I01
sg10
L5L
sa(dp378
g1
g36
sg3
I01
sg10
L5L
sa(dp379
g1
g38
sg3
I01
sg10
L2L
sg4
VThis method is called when a class is subclassed.\u000a\u000aThe default implementation does nothing. It may be\u000aoverridden to extend subclasses.\u000a
p380
sa(dp381
g1
g114
sg3
I01
sg10
L5L
sa(dp382
g1
g41
sg3
I01
sg10
L5L
sa(dp383
g1
g43
sg3
I01
sg10
L5L
sa(dp384
g1
g47
sg3
I01
sg10
L5L
sa(dp385
g1
g49
sg3
I01
sg10
L2L
sg4
VCreate and return a new object.  See help(type) for accurate signature.
p386
sa(dp387
g1
g121
sg3
I01
sg10
L5L
sa(dp388
g1
g52
sg3
I01
sg10
L2L
sg4
VReturn state information for pickling.
p389
sa(dp390
g1
g55
sg3
I01
sg10
L2L
sg4
Vhelper for pickle
p391
sa(dp392
g1
g58
sg3
I01
sg10
L5L
sa(dp393
g1
g60
sg3
I01
sg10
L5L
sa(dp394
g1
g62
sg3
I01
sg10
L2L
sg4
V__sizeof__() -> int\u000asize of object in memory, in bytes
p395
sa(dp396
g1
g65
sg3
I01
sg10
L5L
sa(dp397
g1
g67
sg3
I01
sg10
L2L
sg4
VAbstract classes can override this to customize issubclass().\u000a\u000aThis is invoked early on by abc.ABCMeta.__subclasscheck__().\u000aIt should return True, False or NotImplemented.  If it returns\u000aNotImplemented, the normal algorithm is used.  Otherwise, it\u000aoverrides the normal algorithm (and the outcome is cached).\u000a
p398
sasg4
Vcompress(data, selectors) --> iterator over selected data\u000a\u000aReturn data elements corresponding to true selector elements.\u000aForms a shorter iterator from selected data elements using the\u000aselectors to choose the data elements.
p399
sa(dp400
g1
Vcount
p401
sg3
I01
sg10
L3L
sg6
(lp402
(dp403
g1
g15
sg3
I01
sg10
L5L
sa(dp404
g1
g19
sg3
I01
sg10
L2L
sg4
V__dir__() -> list\u000adefault dir() implementation
p405
sa(dp406
g1
g9
sg3
I01
sg10
L5L
sa(dp407
g1
g23
sg3
I01
sg10
L5L
sa(dp408
g1
g25
sg3
I01
sg10
L2L
sg4
Vdefault object formatter
p409
sa(dp410
g1
g28
sg3
I01
sg10
L5L
sa(dp411
g1
g30
sg3
I01
sg10
L5L
sa(dp412
g1
g32
sg3
I01
sg10
L5L
sa(dp413
g1
g34
sg3
I01
sg10
L5L
sa(dp414
g1
g36
sg3
I01
sg10
L5L
sa(dp415
g1
g38
sg3
I01
sg10
L2L
sg4
VThis method is called when a class is subclassed.\u000a\u000aThe default implementation does nothing. It may be\u000aoverridden to extend subclasses.\u000a
p416
sa(dp417
g1
g114
sg3
I01
sg10
L5L
sa(dp418
g1
g41
sg3
I01
sg10
L5L
sa(dp419
g1
g43
sg3
I01
sg10
L5L
sa(dp420
g1
g47
sg3
I01
sg10
L5L
sa(dp421
g1
g49
sg3
I01
sg10
L2L
sg4
VCreate and return a new object.  See help(type) for accurate signature.
p422
sa(dp423
g1
g121
sg3
I01
sg10
L5L
sa(dp424
g1
g52
sg3
I01
sg10
L2L
sg4
VReturn state information for pickling.
p425
sa(dp426
g1
g55
sg3
I01
sg10
L2L
sg4
Vhelper for pickle
p427
sa(dp428
g1
g58
sg3
I01
sg10
L5L
sa(dp429
g1
g60
sg3
I01
sg10
L5L
sa(dp430
g1
g62
sg3
I01
sg10
L2L
sg4
V__sizeof__() -> int\u000asize of object in memory, in bytes
p431
sa(dp432
g1
g65
sg3
I01
sg10
L5L
sa(dp433
g1
g67
sg3
I01
sg10
L2L
sg4
VAbstract classes can override this to customize issubclass().\u000a\u000aThis is invoked early on by abc.ABCMeta.__subclasscheck__().\u000aIt should return True, False or NotImplemented.  If it returns\u000aNotImplemented, the normal algorithm is used.  Otherwise, it\u000aoverrides the normal algorithm (and the outcome is cached).\u000a
p434
sasg4
Vcount(start=0, step=1) --> count object\u000a\u000aReturn a count object whose .__next__() method returns consecutive values.\u000aEquivalent to:\u000a\u000a    def count(firstval=0, step=1):\u000a        x = firstval\u000a        while 1:\u000a            yield x\u000a            x += step\u000a
p435
sa(dp436
g1
Vcycle
p437
sg3
I01
sg10
L3L
sg6
(lp438
(dp439
g1
g15
sg3
I01
sg10
L5L
sa(dp440
g1
g19
sg3
I01
sg10
L2L
sg4
V__dir__() -> list\u000adefault dir() implementation
p441
sa(dp442
g1
g9
sg3
I01
sg10
L5L
sa(dp443
g1
g23
sg3
I01
sg10
L5L
sa(dp444
g1
g25
sg3
I01
sg10
L2L
sg4
Vdefault object formatter
p445
sa(dp446
g1
g28
sg3
I01
sg10
L5L
sa(dp447
g1
g30
sg3
I01
sg10
L5L
sa(dp448
g1
g32
sg3
I01
sg10
L5L
sa(dp449
g1
g34
sg3
I01
sg10
L5L
sa(dp450
g1
g36
sg3
I01
sg10
L5L
sa(dp451
g1
g38
sg3
I01
sg10
L2L
sg4
VThis method is called when a class is subclassed.\u000a\u000aThe default implementation does nothing. It may be\u000aoverridden to extend subclasses.\u000a
p452
sa(dp453
g1
g114
sg3
I01
sg10
L5L
sa(dp454
g1
g41
sg3
I01
sg10
L5L
sa(dp455
g1
g43
sg3
I01
sg10
L5L
sa(dp456
g1
g47
sg3
I01
sg10
L5L
sa(dp457
g1
g49
sg3
I01
sg10
L2L
sg4
VCreate and return a new object.  See help(type) for accurate signature.
p458
sa(dp459
g1
g121
sg3
I01
sg10
L5L
sa(dp460
g1
g52
sg3
I01
sg10
L2L
sg4
VReturn state information for pickling.
p461
sa(dp462
g1
g55
sg3
I01
sg10
L2L
sg4
Vhelper for pickle
p463
sa(dp464
g1
g58
sg3
I01
sg10
L5L
sa(dp465
g1
g60
sg3
I01
sg10
L5L
sa(dp466
g1
g167
sg3
I01
sg10
L2L
sg4
VSet state information for unpickling.
p467
sa(dp468
g1
g62
sg3
I01
sg10
L2L
sg4
V__sizeof__() -> int\u000asize of object in memory, in bytes
p469
sa(dp470
g1
g65
sg3
I01
sg10
L5L
sa(dp471
g1
g67
sg3
I01
sg10
L2L
sg4
VAbstract classes can override this to customize issubclass().\u000a\u000aThis is invoked early on by abc.ABCMeta.__subclasscheck__().\u000aIt should return True, False or NotImplemented.  If it returns\u000aNotImplemented, the normal algorithm is used.  Otherwise, it\u000aoverrides the normal algorithm (and the outcome is cached).\u000a
p472
sasg4
Vcycle(iterable) --> cycle object\u000a\u000aReturn elements from the iterable until it is exhausted.\u000aThen repeat the sequence indefinitely.
p473
sa(dp474
g1
Vdropwhile
p475
sg3
I01
sg10
L3L
sg6
(lp476
(dp477
g1
g15
sg3
I01
sg10
L5L
sa(dp478
g1
g19
sg3
I01
sg10
L2L
sg4
V__dir__() -> list\u000adefault dir() implementation
p479
sa(dp480
g1
g9
sg3
I01
sg10
L5L
sa(dp481
g1
g23
sg3
I01
sg10
L5L
sa(dp482
g1
g25
sg3
I01
sg10
L2L
sg4
Vdefault object formatter
p483
sa(dp484
g1
g28
sg3
I01
sg10
L5L
sa(dp485
g1
g30
sg3
I01
sg10
L5L
sa(dp486
g1
g32
sg3
I01
sg10
L5L
sa(dp487
g1
g34
sg3
I01
sg10
L5L
sa(dp488
g1
g36
sg3
I01
sg10
L5L
sa(dp489
g1
g38
sg3
I01
sg10
L2L
sg4
VThis method is called when a class is subclassed.\u000a\u000aThe default implementation does nothing. It may be\u000aoverridden to extend subclasses.\u000a
p490
sa(dp491
g1
g114
sg3
I01
sg10
L5L
sa(dp492
g1
g41
sg3
I01
sg10
L5L
sa(dp493
g1
g43
sg3
I01
sg10
L5L
sa(dp494
g1
g47
sg3
I01
sg10
L5L
sa(dp495
g1
g49
sg3
I01
sg10
L2L
sg4
VCreate and return a new object.  See help(type) for accurate signature.
p496
sa(dp497
g1
g121
sg3
I01
sg10
L5L
sa(dp498
g1
g52
sg3
I01
sg10
L2L
sg4
VReturn state information for pickling.
p499
sa(dp500
g1
g55
sg3
I01
sg10
L2L
sg4
Vhelper for pickle
p501
sa(dp502
g1
g58
sg3
I01
sg10
L5L
sa(dp503
g1
g60
sg3
I01
sg10
L5L
sa(dp504
g1
g167
sg3
I01
sg10
L2L
sg4
VSet state information for unpickling.
p505
sa(dp506
g1
g62
sg3
I01
sg10
L2L
sg4
V__sizeof__() -> int\u000asize of object in memory, in bytes
p507
sa(dp508
g1
g65
sg3
I01
sg10
L5L
sa(dp509
g1
g67
sg3
I01
sg10
L2L
sg4
VAbstract classes can override this to customize issubclass().\u000a\u000aThis is invoked early on by abc.ABCMeta.__subclasscheck__().\u000aIt should return True, False or NotImplemented.  If it returns\u000aNotImplemented, the normal algorithm is used.  Otherwise, it\u000aoverrides the normal algorithm (and the outcome is cached).\u000a
p510
sasg4
Vdropwhile(predicate, iterable) --> dropwhile object\u000a\u000aDrop items from the iterable while predicate(item) is true.\u000aAfterwards, return every element until the iterable is exhausted.
p511
sa(dp512
g1
Vfilterfalse
p513
sg3
I01
sg10
L3L
sg6
(lp514
(dp515
g1
g15
sg3
I01
sg10
L5L
sa(dp516
g1
g19
sg3
I01
sg10
L2L
sg4
V__dir__() -> list\u000adefault dir() implementation
p517
sa(dp518
g1
g9
sg3
I01
sg10
L5L
sa(dp519
g1
g23
sg3
I01
sg10
L5L
sa(dp520
g1
g25
sg3
I01
sg10
L2L
sg4
Vdefault object formatter
p521
sa(dp522
g1
g28
sg3
I01
sg10
L5L
sa(dp523
g1
g30
sg3
I01
sg10
L5L
sa(dp524
g1
g32
sg3
I01
sg10
L5L
sa(dp525
g1
g34
sg3
I01
sg10
L5L
sa(dp526
g1
g36
sg3
I01
sg10
L5L
sa(dp527
g1
g38
sg3
I01
sg10
L2L
sg4
VThis method is called when a class is subclassed.\u000a\u000aThe default implementation does nothing. It may be\u000aoverridden to extend subclasses.\u000a
p528
sa(dp529
g1
g114
sg3
I01
sg10
L5L
sa(dp530
g1
g41
sg3
I01
sg10
L5L
sa(dp531
g1
g43
sg3
I01
sg10
L5L
sa(dp532
g1
g47
sg3
I01
sg10
L5L
sa(dp533
g1
g49
sg3
I01
sg10
L2L
sg4
VCreate and return a new object.  See help(type) for accurate signature.
p534
sa(dp535
g1
g121
sg3
I01
sg10
L5L
sa(dp536
g1
g52
sg3
I01
sg10
L2L
sg4
VReturn state information for pickling.
p537
sa(dp538
g1
g55
sg3
I01
sg10
L2L
sg4
Vhelper for pickle
p539
sa(dp540
g1
g58
sg3
I01
sg10
L5L
sa(dp541
g1
g60
sg3
I01
sg10
L5L
sa(dp542
g1
g62
sg3
I01
sg10
L2L
sg4
V__sizeof__() -> int\u000asize of object in memory, in bytes
p543
sa(dp544
g1
g65
sg3
I01
sg10
L5L
sa(dp545
g1
g67
sg3
I01
sg10
L2L
sg4
VAbstract classes can override this to customize issubclass().\u000a\u000aThis is invoked early on by abc.ABCMeta.__subclasscheck__().\u000aIt should return True, False or NotImplemented.  If it returns\u000aNotImplemented, the normal algorithm is used.  Otherwise, it\u000aoverrides the normal algorithm (and the outcome is cached).\u000a
p546
sasg4
Vfilterfalse(function or None, sequence) --> filterfalse object\u000a\u000aReturn those items of sequence for which function(item) is false.\u000aIf function is None, return the items that are false.
p547
sa(dp548
g1
Vgroupby
p549
sg3
I01
sg10
L3L
sg6
(lp550
(dp551
g1
g15
sg3
I01
sg10
L5L
sa(dp552
g1
g19
sg3
I01
sg10
L2L
sg4
V__dir__() -> list\u000adefault dir() implementation
p553
sa(dp554
g1
g9
sg3
I01
sg10
L5L
sa(dp555
g1
g23
sg3
I01
sg10
L5L
sa(dp556
g1
g25
sg3
I01
sg10
L2L
sg4
Vdefault object formatter
p557
sa(dp558
g1
g28
sg3
I01
sg10
L5L
sa(dp559
g1
g30
sg3
I01
sg10
L5L
sa(dp560
g1
g32
sg3
I01
sg10
L5L
sa(dp561
g1
g34
sg3
I01
sg10
L5L
sa(dp562
g1
g36
sg3
I01
sg10
L5L
sa(dp563
g1
g38
sg3
I01
sg10
L2L
sg4
VThis method is called when a class is subclassed.\u000a\u000aThe default implementation does nothing. It may be\u000aoverridden to extend subclasses.\u000a
p564
sa(dp565
g1
g114
sg3
I01
sg10
L5L
sa(dp566
g1
g41
sg3
I01
sg10
L5L
sa(dp567
g1
g43
sg3
I01
sg10
L5L
sa(dp568
g1
g47
sg3
I01
sg10
L5L
sa(dp569
g1
g49
sg3
I01
sg10
L2L
sg4
VCreate and return a new object.  See help(type) for accurate signature.
p570
sa(dp571
g1
g121
sg3
I01
sg10
L5L
sa(dp572
g1
g52
sg3
I01
sg10
L2L
sg4
VReturn state information for pickling.
p573
sa(dp574
g1
g55
sg3
I01
sg10
L2L
sg4
Vhelper for pickle
p575
sa(dp576
g1
g58
sg3
I01
sg10
L5L
sa(dp577
g1
g60
sg3
I01
sg10
L5L
sa(dp578
g1
g167
sg3
I01
sg10
L2L
sg4
VSet state information for unpickling.
p579
sa(dp580
g1
g62
sg3
I01
sg10
L2L
sg4
V__sizeof__() -> int\u000asize of object in memory, in bytes
p581
sa(dp582
g1
g65
sg3
I01
sg10
L5L
sa(dp583
g1
g67
sg3
I01
sg10
L2L
sg4
VAbstract classes can override this to customize issubclass().\u000a\u000aThis is invoked early on by abc.ABCMeta.__subclasscheck__().\u000aIt should return True, False or NotImplemented.  If it returns\u000aNotImplemented, the normal algorithm is used.  Otherwise, it\u000aoverrides the normal algorithm (and the outcome is cached).\u000a
p584
sasg4
Vgroupby(iterable, key=None) -> make an iterator that returns consecutive\u000akeys and groups from the iterable.  If the key function is not specified or\u000ais None, the element itself is used for grouping.\u000a
p585
sa(dp586
g1
Vislice
p587
sg3
I01
sg10
L3L
sg6
(lp588
(dp589
g1
g15
sg3
I01
sg10
L5L
sa(dp590
g1
g19
sg3
I01
sg10
L2L
sg4
V__dir__() -> list\u000adefault dir() implementation
p591
sa(dp592
g1
g9
sg3
I01
sg10
L5L
sa(dp593
g1
g23
sg3
I01
sg10
L5L
sa(dp594
g1
g25
sg3
I01
sg10
L2L
sg4
Vdefault object formatter
p595
sa(dp596
g1
g28
sg3
I01
sg10
L5L
sa(dp597
g1
g30
sg3
I01
sg10
L5L
sa(dp598
g1
g32
sg3
I01
sg10
L5L
sa(dp599
g1
g34
sg3
I01
sg10
L5L
sa(dp600
g1
g36
sg3
I01
sg10
L5L
sa(dp601
g1
g38
sg3
I01
sg10
L2L
sg4
VThis method is called when a class is subclassed.\u000a\u000aThe default implementation does nothing. It may be\u000aoverridden to extend subclasses.\u000a
p602
sa(dp603
g1
g114
sg3
I01
sg10
L5L
sa(dp604
g1
g41
sg3
I01
sg10
L5L
sa(dp605
g1
g43
sg3
I01
sg10
L5L
sa(dp606
g1
g47
sg3
I01
sg10
L5L
sa(dp607
g1
g49
sg3
I01
sg10
L2L
sg4
VCreate and return a new object.  See help(type) for accurate signature.
p608
sa(dp609
g1
g121
sg3
I01
sg10
L5L
sa(dp610
g1
g52
sg3
I01
sg10
L2L
sg4
VReturn state information for pickling.
p611
sa(dp612
g1
g55
sg3
I01
sg10
L2L
sg4
Vhelper for pickle
p613
sa(dp614
g1
g58
sg3
I01
sg10
L5L
sa(dp615
g1
g60
sg3
I01
sg10
L5L
sa(dp616
g1
g167
sg3
I01
sg10
L2L
sg4
VSet state information for unpickling.
p617
sa(dp618
g1
g62
sg3
I01
sg10
L2L
sg4
V__sizeof__() -> int\u000asize of object in memory, in bytes
p619
sa(dp620
g1
g65
sg3
I01
sg10
L5L
sa(dp621
g1
g67
sg3
I01
sg10
L2L
sg4
VAbstract classes can override this to customize issubclass().\u000a\u000aThis is invoked early on by abc.ABCMeta.__subclasscheck__().\u000aIt should return True, False or NotImplemented.  If it returns\u000aNotImplemented, the normal algorithm is used.  Otherwise, it\u000aoverrides the normal algorithm (and the outcome is cached).\u000a
p622
sasg4
Vislice(iterable, stop) --> islice object\u000aislice(iterable, start, stop[, step]) --> islice object\u000a\u000aReturn an iterator whose next() method returns selected values from an\u000aiterable.  If start is specified, will skip all preceding elements;\u000aotherwise, start defaults to zero.  Step defaults to one.  If\u000aspecified as another value, step determines how many values are \u000askipped between successive calls.  Works like a slice() on a list\u000abut returns an iterator.
p623
sa(dp624
g1
Vpermutations
p625
sg3
I01
sg10
L3L
sg6
(lp626
(dp627
g1
g15
sg3
I01
sg10
L5L
sa(dp628
g1
g19
sg3
I01
sg10
L2L
sg4
V__dir__() -> list\u000adefault dir() implementation
p629
sa(dp630
g1
g9
sg3
I01
sg10
L5L
sa(dp631
g1
g23
sg3
I01
sg10
L5L
sa(dp632
g1
g25
sg3
I01
sg10
L2L
sg4
Vdefault object formatter
p633
sa(dp634
g1
g28
sg3
I01
sg10
L5L
sa(dp635
g1
g30
sg3
I01
sg10
L5L
sa(dp636
g1
g32
sg3
I01
sg10
L5L
sa(dp637
g1
g34
sg3
I01
sg10
L5L
sa(dp638
g1
g36
sg3
I01
sg10
L5L
sa(dp639
g1
g38
sg3
I01
sg10
L2L
sg4
VThis method is called when a class is subclassed.\u000a\u000aThe default implementation does nothing. It may be\u000aoverridden to extend subclasses.\u000a
p640
sa(dp641
g1
g114
sg3
I01
sg10
L5L
sa(dp642
g1
g41
sg3
I01
sg10
L5L
sa(dp643
g1
g43
sg3
I01
sg10
L5L
sa(dp644
g1
g47
sg3
I01
sg10
L5L
sa(dp645
g1
g49
sg3
I01
sg10
L2L
sg4
VCreate and return a new object.  See help(type) for accurate signature.
p646
sa(dp647
g1
g121
sg3
I01
sg10
L5L
sa(dp648
g1
g52
sg3
I01
sg10
L2L
sg4
VReturn state information for pickling.
p649
sa(dp650
g1
g55
sg3
I01
sg10
L2L
sg4
Vhelper for pickle
p651
sa(dp652
g1
g58
sg3
I01
sg10
L5L
sa(dp653
g1
g60
sg3
I01
sg10
L5L
sa(dp654
g1
g167
sg3
I01
sg10
L2L
sg4
VSet state information for unpickling.
p655
sa(dp656
g1
g62
sg3
I01
sg10
L2L
sg4
VReturns size in memory, in bytes.
p657
sa(dp658
g1
g65
sg3
I01
sg10
L5L
sa(dp659
g1
g67
sg3
I01
sg10
L2L
sg4
VAbstract classes can override this to customize issubclass().\u000a\u000aThis is invoked early on by abc.ABCMeta.__subclasscheck__().\u000aIt should return True, False or NotImplemented.  If it returns\u000aNotImplemented, the normal algorithm is used.  Otherwise, it\u000aoverrides the normal algorithm (and the outcome is cached).\u000a
p660
sasg4
Vpermutations(iterable[, r]) --> permutations object\u000a\u000aReturn successive r-length permutations of elements in the iterable.\u000a\u000apermutations(range(3), 2) --> (0,1), (0,2), (1,0), (1,2), (2,0), (2,1)
p661
sa(dp662
g1
Vproduct
p663
sg3
I01
sg10
L3L
sg6
(lp664
(dp665
g1
g15
sg3
I01
sg10
L5L
sa(dp666
g1
g19
sg3
I01
sg10
L2L
sg4
V__dir__() -> list\u000adefault dir() implementation
p667
sa(dp668
g1
g9
sg3
I01
sg10
L5L
sa(dp669
g1
g23
sg3
I01
sg10
L5L
sa(dp670
g1
g25
sg3
I01
sg10
L2L
sg4
Vdefault object formatter
p671
sa(dp672
g1
g28
sg3
I01
sg10
L5L
sa(dp673
g1
g30
sg3
I01
sg10
L5L
sa(dp674
g1
g32
sg3
I01
sg10
L5L
sa(dp675
g1
g34
sg3
I01
sg10
L5L
sa(dp676
g1
g36
sg3
I01
sg10
L5L
sa(dp677
g1
g38
sg3
I01
sg10
L2L
sg4
VThis method is called when a class is subclassed.\u000a\u000aThe default implementation does nothing. It may be\u000aoverridden to extend subclasses.\u000a
p678
sa(dp679
g1
g114
sg3
I01
sg10
L5L
sa(dp680
g1
g41
sg3
I01
sg10
L5L
sa(dp681
g1
g43
sg3
I01
sg10
L5L
sa(dp682
g1
g47
sg3
I01
sg10
L5L
sa(dp683
g1
g49
sg3
I01
sg10
L2L
sg4
VCreate and return a new object.  See help(type) for accurate signature.
p684
sa(dp685
g1
g121
sg3
I01
sg10
L5L
sa(dp686
g1
g52
sg3
I01
sg10
L2L
sg4
VReturn state information for pickling.
p687
sa(dp688
g1
g55
sg3
I01
sg10
L2L
sg4
Vhelper for pickle
p689
sa(dp690
g1
g58
sg3
I01
sg10
L5L
sa(dp691
g1
g60
sg3
I01
sg10
L5L
sa(dp692
g1
g167
sg3
I01
sg10
L2L
sg4
VSet state information for unpickling.
p693
sa(dp694
g1
g62
sg3
I01
sg10
L2L
sg4
VReturns size in memory, in bytes.
p695
sa(dp696
g1
g65
sg3
I01
sg10
L5L
sa(dp697
g1
g67
sg3
I01
sg10
L2L
sg4
VAbstract classes can override this to customize issubclass().\u000a\u000aThis is invoked early on by abc.ABCMeta.__subclasscheck__().\u000aIt should return True, False or NotImplemented.  If it returns\u000aNotImplemented, the normal algorithm is used.  Otherwise, it\u000aoverrides the normal algorithm (and the outcome is cached).\u000a
p698
sasg4
Vproduct(*iterables, repeat=1) --> product object\u000a\u000aCartesian product of input iterables.  Equivalent to nested for-loops.\u000a\u000aFor example, product(A, B) returns the same as:  ((x,y) for x in A for y in B).\u000aThe leftmost iterators are in the outermost for-loop, so the output tuples\u000acycle in a manner similar to an odometer (with the rightmost element changing\u000aon every iteration).\u000a\u000aTo compute the product of an iterable with itself, specify the number\u000aof repetitions with the optional repeat keyword argument. For example,\u000aproduct(A, repeat=4) means the same as product(A, A, A, A).\u000a\u000aproduct('ab', range(3)) --> ('a',0) ('a',1) ('a',2) ('b',0) ('b',1) ('b',2)\u000aproduct((0,1), (0,1), (0,1)) --> (0,0,0) (0,0,1) (0,1,0) (0,1,1) (1,0,0) ...
p699
sa(dp700
g1
Vrepeat
p701
sg3
I01
sg10
L3L
sg6
(lp702
(dp703
g1
g15
sg3
I01
sg10
L5L
sa(dp704
g1
g19
sg3
I01
sg10
L2L
sg4
V__dir__() -> list\u000adefault dir() implementation
p705
sa(dp706
g1
g9
sg3
I01
sg10
L5L
sa(dp707
g1
g23
sg3
I01
sg10
L5L
sa(dp708
g1
g25
sg3
I01
sg10
L2L
sg4
Vdefault object formatter
p709
sa(dp710
g1
g28
sg3
I01
sg10
L5L
sa(dp711
g1
g30
sg3
I01
sg10
L5L
sa(dp712
g1
g32
sg3
I01
sg10
L5L
sa(dp713
g1
g34
sg3
I01
sg10
L5L
sa(dp714
g1
g36
sg3
I01
sg10
L5L
sa(dp715
g1
g38
sg3
I01
sg10
L2L
sg4
VThis method is called when a class is subclassed.\u000a\u000aThe default implementation does nothing. It may be\u000aoverridden to extend subclasses.\u000a
p716
sa(dp717
g1
g114
sg3
I01
sg10
L5L
sa(dp718
g1
g41
sg3
I01
sg10
L5L
sa(dp719
g1
V__length_hint__
p720
sg3
I01
sg10
L2L
sg4
VPrivate method returning an estimate of len(list(it)).
p721
sa(dp722
g1
g43
sg3
I01
sg10
L5L
sa(dp723
g1
g47
sg3
I01
sg10
L5L
sa(dp724
g1
g49
sg3
I01
sg10
L2L
sg4
VCreate and return a new object.  See help(type) for accurate signature.
p725
sa(dp726
g1
g121
sg3
I01
sg10
L5L
sa(dp727
g1
g52
sg3
I01
sg10
L2L
sg4
VReturn state information for pickling.
p728
sa(dp729
g1
g55
sg3
I01
sg10
L2L
sg4
Vhelper for pickle
p730
sa(dp731
g1
g58
sg3
I01
sg10
L5L
sa(dp732
g1
g60
sg3
I01
sg10
L5L
sa(dp733
g1
g62
sg3
I01
sg10
L2L
sg4
V__sizeof__() -> int\u000asize of object in memory, in bytes
p734
sa(dp735
g1
g65
sg3
I01
sg10
L5L
sa(dp736
g1
g67
sg3
I01
sg10
L2L
sg4
VAbstract classes can override this to customize issubclass().\u000a\u000aThis is invoked early on by abc.ABCMeta.__subclasscheck__().\u000aIt should return True, False or NotImplemented.  If it returns\u000aNotImplemented, the normal algorithm is used.  Otherwise, it\u000aoverrides the normal algorithm (and the outcome is cached).\u000a
p737
sasg4
Vrepeat(object [,times]) -> create an iterator which returns the object\u000afor the specified number of times.  If not specified, returns the object\u000aendlessly.
p738
sa(dp739
g1
Vstarmap
p740
sg3
I01
sg10
L3L
sg6
(lp741
(dp742
g1
g15
sg3
I01
sg10
L5L
sa(dp743
g1
g19
sg3
I01
sg10
L2L
sg4
V__dir__() -> list\u000adefault dir() implementation
p744
sa(dp745
g1
g9
sg3
I01
sg10
L5L
sa(dp746
g1
g23
sg3
I01
sg10
L5L
sa(dp747
g1
g25
sg3
I01
sg10
L2L
sg4
Vdefault object formatter
p748
sa(dp749
g1
g28
sg3
I01
sg10
L5L
sa(dp750
g1
g30
sg3
I01
sg10
L5L
sa(dp751
g1
g32
sg3
I01
sg10
L5L
sa(dp752
g1
g34
sg3
I01
sg10
L5L
sa(dp753
g1
g36
sg3
I01
sg10
L5L
sa(dp754
g1
g38
sg3
I01
sg10
L2L
sg4
VThis method is called when a class is subclassed.\u000a\u000aThe default implementation does nothing. It may be\u000aoverridden to extend subclasses.\u000a
p755
sa(dp756
g1
g114
sg3
I01
sg10
L5L
sa(dp757
g1
g41
sg3
I01
sg10
L5L
sa(dp758
g1
g43
sg3
I01
sg10
L5L
sa(dp759
g1
g47
sg3
I01
sg10
L5L
sa(dp760
g1
g49
sg3
I01
sg10
L2L
sg4
VCreate and return a new object.  See help(type) for accurate signature.
p761
sa(dp762
g1
g121
sg3
I01
sg10
L5L
sa(dp763
g1
g52
sg3
I01
sg10
L2L
sg4
VReturn state information for pickling.
p764
sa(dp765
g1
g55
sg3
I01
sg10
L2L
sg4
Vhelper for pickle
p766
sa(dp767
g1
g58
sg3
I01
sg10
L5L
sa(dp768
g1
g60
sg3
I01
sg10
L5L
sa(dp769
g1
g62
sg3
I01
sg10
L2L
sg4
V__sizeof__() -> int\u000asize of object in memory, in bytes
p770
sa(dp771
g1
g65
sg3
I01
sg10
L5L
sa(dp772
g1
g67
sg3
I01
sg10
L2L
sg4
VAbstract classes can override this to customize issubclass().\u000a\u000aThis is invoked early on by abc.ABCMeta.__subclasscheck__().\u000aIt should return True, False or NotImplemented.  If it returns\u000aNotImplemented, the normal algorithm is used.  Otherwise, it\u000aoverrides the normal algorithm (and the outcome is cached).\u000a
p773
sasg4
Vstarmap(function, sequence) --> starmap object\u000a\u000aReturn an iterator whose values are returned from the function evaluated\u000awith an argument tuple taken from the given sequence.
p774
sa(dp775
g1
Vtakewhile
p776
sg3
I01
sg10
L3L
sg6
(lp777
(dp778
g1
g15
sg3
I01
sg10
L5L
sa(dp779
g1
g19
sg3
I01
sg10
L2L
sg4
V__dir__() -> list\u000adefault dir() implementation
p780
sa(dp781
g1
g9
sg3
I01
sg10
L5L
sa(dp782
g1
g23
sg3
I01
sg10
L5L
sa(dp783
g1
g25
sg3
I01
sg10
L2L
sg4
Vdefault object formatter
p784
sa(dp785
g1
g28
sg3
I01
sg10
L5L
sa(dp786
g1
g30
sg3
I01
sg10
L5L
sa(dp787
g1
g32
sg3
I01
sg10
L5L
sa(dp788
g1
g34
sg3
I01
sg10
L5L
sa(dp789
g1
g36
sg3
I01
sg10
L5L
sa(dp790
g1
g38
sg3
I01
sg10
L2L
sg4
VThis method is called when a class is subclassed.\u000a\u000aThe default implementation does nothing. It may be\u000aoverridden to extend subclasses.\u000a
p791
sa(dp792
g1
g114
sg3
I01
sg10
L5L
sa(dp793
g1
g41
sg3
I01
sg10
L5L
sa(dp794
g1
g43
sg3
I01
sg10
L5L
sa(dp795
g1
g47
sg3
I01
sg10
L5L
sa(dp796
g1
g49
sg3
I01
sg10
L2L
sg4
VCreate and return a new object.  See help(type) for accurate signature.
p797
sa(dp798
g1
g121
sg3
I01
sg10
L5L
sa(dp799
g1
g52
sg3
I01
sg10
L2L
sg4
VReturn state information for pickling.
p800
sa(dp801
g1
g55
sg3
I01
sg10
L2L
sg4
Vhelper for pickle
p802
sa(dp803
g1
g58
sg3
I01
sg10
L5L
sa(dp804
g1
g60
sg3
I01
sg10
L5L
sa(dp805
g1
g167
sg3
I01
sg10
L2L
sg4
VSet state information for unpickling.
p806
sa(dp807
g1
g62
sg3
I01
sg10
L2L
sg4
V__sizeof__() -> int\u000asize of object in memory, in bytes
p808
sa(dp809
g1
g65
sg3
I01
sg10
L5L
sa(dp810
g1
g67
sg3
I01
sg10
L2L
sg4
VAbstract classes can override this to customize issubclass().\u000a\u000aThis is invoked early on by abc.ABCMeta.__subclasscheck__().\u000aIt should return True, False or NotImplemented.  If it returns\u000aNotImplemented, the normal algorithm is used.  Otherwise, it\u000aoverrides the normal algorithm (and the outcome is cached).\u000a
p811
sasg4
Vtakewhile(predicate, iterable) --> takewhile object\u000a\u000aReturn successive entries from an iterable as long as the \u000apredicate evaluates to true for each entry.
p812
sa(dp813
g1
Vtee
p814
sg3
I01
sg10
L2L
sg4
Vtee(iterable, n=2) --> tuple of n independent iterators.
p815
sa(dp816
g1
Vzip_longest
p817
sg3
I01
sg10
L3L
sg6
(lp818
(dp819
g1
g15
sg3
I01
sg10
L5L
sa(dp820
g1
g19
sg3
I01
sg10
L2L
sg4
V__dir__() -> list\u000adefault dir() implementation
p821
sa(dp822
g1
g9
sg3
I01
sg10
L5L
sa(dp823
g1
g23
sg3
I01
sg10
L5L
sa(dp824
g1
g25
sg3
I01
sg10
L2L
sg4
Vdefault object formatter
p825
sa(dp826
g1
g28
sg3
I01
sg10
L5L
sa(dp827
g1
g30
sg3
I01
sg10
L5L
sa(dp828
g1
g32
sg3
I01
sg10
L5L
sa(dp829
g1
g34
sg3
I01
sg10
L5L
sa(dp830
g1
g36
sg3
I01
sg10
L5L
sa(dp831
g1
g38
sg3
I01
sg10
L2L
sg4
VThis method is called when a class is subclassed.\u000a\u000aThe default implementation does nothing. It may be\u000aoverridden to extend subclasses.\u000a
p832
sa(dp833
g1
g114
sg3
I01
sg10
L5L
sa(dp834
g1
g41
sg3
I01
sg10
L5L
sa(dp835
g1
g43
sg3
I01
sg10
L5L
sa(dp836
g1
g47
sg3
I01
sg10
L5L
sa(dp837
g1
g49
sg3
I01
sg10
L2L
sg4
VCreate and return a new object.  See help(type) for accurate signature.
p838
sa(dp839
g1
g121
sg3
I01
sg10
L5L
sa(dp840
g1
g52
sg3
I01
sg10
L2L
sg4
VReturn state information for pickling.
p841
sa(dp842
g1
g55
sg3
I01
sg10
L2L
sg4
Vhelper for pickle
p843
sa(dp844
g1
g58
sg3
I01
sg10
L5L
sa(dp845
g1
g60
sg3
I01
sg10
L5L
sa(dp846
g1
g167
sg3
I01
sg10
L2L
sg4
VSet state information for unpickling.
p847
sa(dp848
g1
g62
sg3
I01
sg10
L2L
sg4
V__sizeof__() -> int\u000asize of object in memory, in bytes
p849
sa(dp850
g1
g65
sg3
I01
sg10
L5L
sa(dp851
g1
g67
sg3
I01
sg10
L2L
sg4
VAbstract classes can override this to customize issubclass().\u000a\u000aThis is invoked early on by abc.ABCMeta.__subclasscheck__().\u000aIt should return True, False or NotImplemented.  If it returns\u000aNotImplemented, the normal algorithm is used.  Otherwise, it\u000aoverrides the normal algorithm (and the outcome is cached).\u000a
p852
sasg4
Vzip_longest(iter1 [,iter2 [...]], [fillvalue=None]) --> zip_longest object\u000a\u000aReturn a zip_longest object whose .__next__() method returns a tuple where\u000athe i-th element comes from the i-th iterable argument.  The .__next__()\u000amethod continues until the longest iterable in the argument sequence\u000ais exhausted and then it raises StopIteration.  When the shorter iterables\u000aare exhausted, the fillvalue is substituted in their place.  The fillvalue\u000adefaults to None or can be specified by a keyword argument.\u000a
p853
sasg10
L1L
s.