(dp0
Vname
p1
Vmmap
p2
sVis_builtin
p3
I01
sVdoc
p4
NsVchilds
p5
(lp6
(dp7
g1
VACCESS_COPY
p8
sg3
I01
sVtype
p9
L5L
sa(dp10
g1
VACCESS_READ
p11
sg3
I01
sg9
L5L
sa(dp12
g1
VACCESS_WRITE
p13
sg3
I01
sg9
L5L
sa(dp14
g1
VALLOCATIONGRANULARITY
p15
sg3
I01
sg9
L5L
sa(dp16
g1
VPAGESIZE
p17
sg3
I01
sg9
L5L
sa(dp18
g1
V__doc__
p19
sg3
I01
sg9
L5L
sa(dp20
g1
V__loader__
p21
sg3
I01
sg9
L3L
sg5
(lp22
(dp23
g1
V__delattr__
p24
sg3
I01
sg9
L5L
sa(dp25
g1
V__dict__
p26
sg3
I01
sg9
L5L
sa(dp27
g1
V__dir__
p28
sg3
I01
sg9
L2L
sg4
V__dir__() -> list\u000adefault dir() implementation
p29
sa(dp30
g1
g19
sg3
I01
sg9
L5L
sa(dp31
g1
V__eq__
p32
sg3
I01
sg9
L5L
sa(dp33
g1
V__format__
p34
sg3
I01
sg9
L2L
sg4
Vdefault object formatter
p35
sa(dp36
g1
V__ge__
p37
sg3
I01
sg9
L5L
sa(dp38
g1
V__getattribute__
p39
sg3
I01
sg9
L5L
sa(dp40
g1
V__gt__
p41
sg3
I01
sg9
L5L
sa(dp42
g1
V__hash__
p43
sg3
I01
sg9
L5L
sa(dp44
g1
V__init__
p45
sg3
I01
sg9
L5L
sa(dp46
g1
V__init_subclass__
p47
sg3
I01
sg9
L2L
sg4
VThis method is called when a class is subclassed.\u000a\u000aThe default implementation does nothing. It may be\u000aoverridden to extend subclasses.\u000a
p48
sa(dp49
g1
V__le__
p50
sg3
I01
sg9
L5L
sa(dp51
g1
V__lt__
p52
sg3
I01
sg9
L5L
sa(dp53
g1
V__module__
p54
sg3
I01
sg9
L5L
sa(dp55
g1
V__ne__
p56
sg3
I01
sg9
L5L
sa(dp57
g1
V__new__
p58
sg3
I01
sg9
L2L
sg4
VCreate and return a new object.  See help(type) for accurate signature.
p59
sa(dp60
g1
V__reduce__
p61
sg3
I01
sg9
L2L
sg4
Vhelper for pickle
p62
sa(dp63
g1
V__reduce_ex__
p64
sg3
I01
sg9
L2L
sg4
Vhelper for pickle
p65
sa(dp66
g1
V__repr__
p67
sg3
I01
sg9
L5L
sa(dp68
g1
V__setattr__
p69
sg3
I01
sg9
L5L
sa(dp70
g1
V__sizeof__
p71
sg3
I01
sg9
L2L
sg4
V__sizeof__() -> int\u000asize of object in memory, in bytes
p72
sa(dp73
g1
V__str__
p74
sg3
I01
sg9
L5L
sa(dp75
g1
V__subclasshook__
p76
sg3
I01
sg9
L2L
sg4
VAbstract classes can override this to customize issubclass().\u000a\u000aThis is invoked early on by abc.ABCMeta.__subclasscheck__().\u000aIt should return True, False or NotImplemented.  If it returns\u000aNotImplemented, the normal algorithm is used.  Otherwise, it\u000aoverrides the normal algorithm (and the outcome is cached).\u000a
p77
sa(dp78
g1
V__weakref__
p79
sg3
I01
sg9
L5L
sa(dp80
g1
Vcreate_module
p81
sg3
I01
sg9
L5L
sa(dp82
g1
Vexec_module
p83
sg3
I01
sg9
L5L
sa(dp84
g1
Vfind_module
p85
sg3
I01
sg9
L5L
sa(dp86
g1
Vfind_spec
p87
sg3
I01
sg9
L5L
sa(dp88
g1
Vget_code
p89
sg3
I01
sg9
L5L
sa(dp90
g1
Vget_source
p91
sg3
I01
sg9
L5L
sa(dp92
g1
Vis_package
p93
sg3
I01
sg9
L5L
sa(dp94
g1
Vload_module
p95
sg3
I01
sg9
L5L
sa(dp96
g1
Vmodule_repr
p97
sg3
I01
sg9
L5L
sasg4
VMeta path import for built-in modules.\u000a\u000a    All methods are either class or static methods to avoid the need to\u000a    instantiate the class.\u000a\u000a    
p98
sa(dp99
g1
V__name__
p100
sg3
I01
sg9
L5L
sa(dp101
g1
V__package__
p102
sg3
I01
sg9
L5L
sa(dp103
g1
V__spec__
p104
sg3
I01
sg9
L5L
sa(dp105
g1
Verror
p106
sg3
I01
sg9
L3L
sg5
(lp107
(dp108
g1
V__cause__
p109
sg3
I01
sg9
L5L
sa(dp110
g1
V__context__
p111
sg3
I01
sg9
L5L
sa(dp112
g1
g24
sg3
I01
sg9
L5L
sa(dp113
g1
g26
sg3
I01
sg9
L5L
sa(dp114
g1
g28
sg3
I01
sg9
L2L
sg4
V__dir__() -> list\u000adefault dir() implementation
p115
sa(dp116
g1
g19
sg3
I01
sg9
L5L
sa(dp117
g1
g32
sg3
I01
sg9
L5L
sa(dp118
g1
g34
sg3
I01
sg9
L2L
sg4
Vdefault object formatter
p119
sa(dp120
g1
g37
sg3
I01
sg9
L5L
sa(dp121
g1
g39
sg3
I01
sg9
L5L
sa(dp122
g1
g41
sg3
I01
sg9
L5L
sa(dp123
g1
g43
sg3
I01
sg9
L5L
sa(dp124
g1
g45
sg3
I01
sg9
L5L
sa(dp125
g1
g47
sg3
I01
sg9
L2L
sg4
VThis method is called when a class is subclassed.\u000a\u000aThe default implementation does nothing. It may be\u000aoverridden to extend subclasses.\u000a
p126
sa(dp127
g1
g50
sg3
I01
sg9
L5L
sa(dp128
g1
g52
sg3
I01
sg9
L5L
sa(dp129
g1
g56
sg3
I01
sg9
L5L
sa(dp130
g1
g58
sg3
I01
sg9
L2L
sg4
VCreate and return a new object.  See help(type) for accurate signature.
p131
sa(dp132
g1
g61
sg3
I01
sg9
L2L
sg4
Nsa(dp133
g1
g64
sg3
I01
sg9
L2L
sg4
Vhelper for pickle
p134
sa(dp135
g1
g67
sg3
I01
sg9
L5L
sa(dp136
g1
g69
sg3
I01
sg9
L5L
sa(dp137
g1
V__setstate__
p138
sg3
I01
sg9
L2L
sg4
Nsa(dp139
g1
g71
sg3
I01
sg9
L2L
sg4
V__sizeof__() -> int\u000asize of object in memory, in bytes
p140
sa(dp141
g1
g74
sg3
I01
sg9
L5L
sa(dp142
g1
g76
sg3
I01
sg9
L2L
sg4
VAbstract classes can override this to customize issubclass().\u000a\u000aThis is invoked early on by abc.ABCMeta.__subclasscheck__().\u000aIt should return True, False or NotImplemented.  If it returns\u000aNotImplemented, the normal algorithm is used.  Otherwise, it\u000aoverrides the normal algorithm (and the outcome is cached).\u000a
p143
sa(dp144
g1
V__suppress_context__
p145
sg3
I01
sg9
L5L
sa(dp146
g1
V__traceback__
p147
sg3
I01
sg9
L5L
sa(dp148
g1
Vargs
p149
sg3
I01
sg9
L5L
sa(dp150
g1
Vcharacters_written
p151
sg3
I01
sg9
L5L
sa(dp152
g1
Verrno
p153
sg3
I01
sg9
L5L
sa(dp154
g1
Vfilename
p155
sg3
I01
sg9
L5L
sa(dp156
g1
Vfilename2
p157
sg3
I01
sg9
L5L
sa(dp158
g1
Vstrerror
p159
sg3
I01
sg9
L5L
sa(dp160
g1
Vwinerror
p161
sg3
I01
sg9
L5L
sa(dp162
g1
Vwith_traceback
p163
sg3
I01
sg9
L2L
sg4
VException.with_traceback(tb) --\u000a    set self.__traceback__ to tb and return self.
p164
sasg4
VBase class for I/O related errors.
p165
sa(dp166
g1
Vmmap
p167
sg3
I01
sg9
L3L
sg5
(lp168
(dp169
g1
V__add__
p170
sg3
I01
sg9
L5L
sa(dp171
g1
g24
sg3
I01
sg9
L5L
sa(dp172
g1
V__delitem__
p173
sg3
I01
sg9
L5L
sa(dp174
g1
g28
sg3
I01
sg9
L2L
sg4
V__dir__() -> list\u000adefault dir() implementation
p175
sa(dp176
g1
g19
sg3
I01
sg9
L5L
sa(dp177
g1
V__enter__
p178
sg3
I01
sg9
L2L
sg4
Nsa(dp179
g1
g32
sg3
I01
sg9
L5L
sa(dp180
g1
V__exit__
p181
sg3
I01
sg9
L2L
sg4
Nsa(dp182
g1
g34
sg3
I01
sg9
L2L
sg4
Vdefault object formatter
p183
sa(dp184
g1
g37
sg3
I01
sg9
L5L
sa(dp185
g1
g39
sg3
I01
sg9
L5L
sa(dp186
g1
V__getitem__
p187
sg3
I01
sg9
L5L
sa(dp188
g1
g41
sg3
I01
sg9
L5L
sa(dp189
g1
g43
sg3
I01
sg9
L5L
sa(dp190
g1
g45
sg3
I01
sg9
L5L
sa(dp191
g1
g47
sg3
I01
sg9
L2L
sg4
VThis method is called when a class is subclassed.\u000a\u000aThe default implementation does nothing. It may be\u000aoverridden to extend subclasses.\u000a
p192
sa(dp193
g1
g50
sg3
I01
sg9
L5L
sa(dp194
g1
V__len__
p195
sg3
I01
sg9
L5L
sa(dp196
g1
g52
sg3
I01
sg9
L5L
sa(dp197
g1
V__mul__
p198
sg3
I01
sg9
L5L
sa(dp199
g1
g56
sg3
I01
sg9
L5L
sa(dp200
g1
g58
sg3
I01
sg9
L2L
sg4
VCreate and return a new object.  See help(type) for accurate signature.
p201
sa(dp202
g1
g61
sg3
I01
sg9
L2L
sg4
Vhelper for pickle
p203
sa(dp204
g1
g64
sg3
I01
sg9
L2L
sg4
Vhelper for pickle
p205
sa(dp206
g1
g67
sg3
I01
sg9
L5L
sa(dp207
g1
V__rmul__
p208
sg3
I01
sg9
L5L
sa(dp209
g1
g69
sg3
I01
sg9
L5L
sa(dp210
g1
V__setitem__
p211
sg3
I01
sg9
L5L
sa(dp212
g1
g71
sg3
I01
sg9
L2L
sg4
Nsa(dp213
g1
g74
sg3
I01
sg9
L5L
sa(dp214
g1
g76
sg3
I01
sg9
L2L
sg4
VAbstract classes can override this to customize issubclass().\u000a\u000aThis is invoked early on by abc.ABCMeta.__subclasscheck__().\u000aIt should return True, False or NotImplemented.  If it returns\u000aNotImplemented, the normal algorithm is used.  Otherwise, it\u000aoverrides the normal algorithm (and the outcome is cached).\u000a
p215
sa(dp216
g1
Vclose
p217
sg3
I01
sg9
L2L
sg4
Nsa(dp218
g1
Vclosed
p219
sg3
I01
sg9
L5L
sa(dp220
g1
Vfind
p221
sg3
I01
sg9
L2L
sg4
Nsa(dp222
g1
Vflush
p223
sg3
I01
sg9
L2L
sg4
Nsa(dp224
g1
Vmove
p225
sg3
I01
sg9
L2L
sg4
Nsa(dp226
g1
Vread
p227
sg3
I01
sg9
L2L
sg4
Nsa(dp228
g1
Vread_byte
p229
sg3
I01
sg9
L2L
sg4
Nsa(dp230
g1
Vreadline
p231
sg3
I01
sg9
L2L
sg4
Nsa(dp232
g1
Vresize
p233
sg3
I01
sg9
L2L
sg4
Nsa(dp234
g1
Vrfind
p235
sg3
I01
sg9
L2L
sg4
Nsa(dp236
g1
Vseek
p237
sg3
I01
sg9
L2L
sg4
Nsa(dp238
g1
Vsize
p239
sg3
I01
sg9
L2L
sg4
Nsa(dp240
g1
Vtell
p241
sg3
I01
sg9
L2L
sg4
Nsa(dp242
g1
Vwrite
p243
sg3
I01
sg9
L2L
sg4
Nsa(dp244
g1
Vwrite_byte
p245
sg3
I01
sg9
L2L
sg4
Nsasg4
VWindows: mmap(fileno, length[, tagname[, access[, offset]]])\u000a\u000aMaps length bytes from the file specified by the file handle fileno,\u000aand returns a mmap object.  If length is larger than the current size\u000aof the file, the file is extended to contain length bytes.  If length\u000ais 0, the maximum length of the map is the current size of the file,\u000aexcept that if the file is empty Windows raises an exception (you cannot\u000acreate an empty mapping on Windows).\u000a\u000aUnix: mmap(fileno, length[, flags[, prot[, access[, offset]]]])\u000a\u000aMaps length bytes from the file specified by the file descriptor fileno,\u000aand returns a mmap object.  If length is 0, the maximum length of the map\u000awill be the current size of the file when mmap is called.\u000aflags specifies the nature of the mapping. MAP_PRIVATE creates a\u000aprivate copy-on-write mapping, so changes to the contents of the mmap\u000aobject will be private to this process, and MAP_SHARED creates a mapping\u000athat's shared with all other processes mapping the same areas of the file.\u000aThe default value is MAP_SHARED.\u000a\u000aTo map anonymous memory, pass -1 as the fileno (both versions).
p246
sasg9
L1L
s.