(dp0
Vname
p1
Vmsvcrt
p2
sVis_builtin
p3
I01
sVdoc
p4
NsVchilds
p5
(lp6
(dp7
g1
VCRT_ASSEMBLY_VERSION
p8
sg3
I01
sVtype
p9
L5L
sa(dp10
g1
VLK_LOCK
p11
sg3
I01
sg9
L5L
sa(dp12
g1
VLK_NBLCK
p13
sg3
I01
sg9
L5L
sa(dp14
g1
VLK_NBRLCK
p15
sg3
I01
sg9
L5L
sa(dp16
g1
VLK_RLCK
p17
sg3
I01
sg9
L5L
sa(dp18
g1
VLK_UNLCK
p19
sg3
I01
sg9
L5L
sa(dp20
g1
VSEM_FAILCRITICALERRORS
p21
sg3
I01
sg9
L5L
sa(dp22
g1
VSEM_NOALIGNMENTFAULTEXCEPT
p23
sg3
I01
sg9
L5L
sa(dp24
g1
VSEM_NOGPFAULTERRORBOX
p25
sg3
I01
sg9
L5L
sa(dp26
g1
VSEM_NOOPENFILEERRORBOX
p27
sg3
I01
sg9
L5L
sa(dp28
g1
VSetErrorMode
p29
sg3
I01
sg9
L2L
sg4
VWrapper around SetErrorMode.
p30
sa(dp31
g1
V__doc__
p32
sg3
I01
sg9
L5L
sa(dp33
g1
V__loader__
p34
sg3
I01
sg9
L3L
sg5
(lp35
(dp36
g1
V__delattr__
p37
sg3
I01
sg9
L5L
sa(dp38
g1
V__dict__
p39
sg3
I01
sg9
L5L
sa(dp40
g1
V__dir__
p41
sg3
I01
sg9
L2L
sg4
V__dir__() -> list\u000adefault dir() implementation
p42
sa(dp43
g1
g32
sg3
I01
sg9
L5L
sa(dp44
g1
V__eq__
p45
sg3
I01
sg9
L5L
sa(dp46
g1
V__format__
p47
sg3
I01
sg9
L2L
sg4
Vdefault object formatter
p48
sa(dp49
g1
V__ge__
p50
sg3
I01
sg9
L5L
sa(dp51
g1
V__getattribute__
p52
sg3
I01
sg9
L5L
sa(dp53
g1
V__gt__
p54
sg3
I01
sg9
L5L
sa(dp55
g1
V__hash__
p56
sg3
I01
sg9
L5L
sa(dp57
g1
V__init__
p58
sg3
I01
sg9
L5L
sa(dp59
g1
V__init_subclass__
p60
sg3
I01
sg9
L2L
sg4
VThis method is called when a class is subclassed.\u000a\u000aThe default implementation does nothing. It may be\u000aoverridden to extend subclasses.\u000a
p61
sa(dp62
g1
V__le__
p63
sg3
I01
sg9
L5L
sa(dp64
g1
V__lt__
p65
sg3
I01
sg9
L5L
sa(dp66
g1
V__module__
p67
sg3
I01
sg9
L5L
sa(dp68
g1
V__ne__
p69
sg3
I01
sg9
L5L
sa(dp70
g1
V__new__
p71
sg3
I01
sg9
L2L
sg4
VCreate and return a new object.  See help(type) for accurate signature.
p72
sa(dp73
g1
V__reduce__
p74
sg3
I01
sg9
L2L
sg4
Vhelper for pickle
p75
sa(dp76
g1
V__reduce_ex__
p77
sg3
I01
sg9
L2L
sg4
Vhelper for pickle
p78
sa(dp79
g1
V__repr__
p80
sg3
I01
sg9
L5L
sa(dp81
g1
V__setattr__
p82
sg3
I01
sg9
L5L
sa(dp83
g1
V__sizeof__
p84
sg3
I01
sg9
L2L
sg4
V__sizeof__() -> int\u000asize of object in memory, in bytes
p85
sa(dp86
g1
V__str__
p87
sg3
I01
sg9
L5L
sa(dp88
g1
V__subclasshook__
p89
sg3
I01
sg9
L2L
sg4
VAbstract classes can override this to customize issubclass().\u000a\u000aThis is invoked early on by abc.ABCMeta.__subclasscheck__().\u000aIt should return True, False or NotImplemented.  If it returns\u000aNotImplemented, the normal algorithm is used.  Otherwise, it\u000aoverrides the normal algorithm (and the outcome is cached).\u000a
p90
sa(dp91
g1
V__weakref__
p92
sg3
I01
sg9
L5L
sa(dp93
g1
Vcreate_module
p94
sg3
I01
sg9
L5L
sa(dp95
g1
Vexec_module
p96
sg3
I01
sg9
L5L
sa(dp97
g1
Vfind_module
p98
sg3
I01
sg9
L5L
sa(dp99
g1
Vfind_spec
p100
sg3
I01
sg9
L5L
sa(dp101
g1
Vget_code
p102
sg3
I01
sg9
L5L
sa(dp103
g1
Vget_source
p104
sg3
I01
sg9
L5L
sa(dp105
g1
Vis_package
p106
sg3
I01
sg9
L5L
sa(dp107
g1
Vload_module
p108
sg3
I01
sg9
L5L
sa(dp109
g1
Vmodule_repr
p110
sg3
I01
sg9
L5L
sasg4
VMeta path import for built-in modules.\u000a\u000a    All methods are either class or static methods to avoid the need to\u000a    instantiate the class.\u000a\u000a    
p111
sa(dp112
g1
V__name__
p113
sg3
I01
sg9
L5L
sa(dp114
g1
V__package__
p115
sg3
I01
sg9
L5L
sa(dp116
g1
V__spec__
p117
sg3
I01
sg9
L5L
sa(dp118
g1
Vget_osfhandle
p119
sg3
I01
sg9
L2L
sg4
VReturn the file handle for the file descriptor fd.\u000a\u000aRaises IOError if fd is not recognized.
p120
sa(dp121
g1
Vgetch
p122
sg3
I01
sg9
L2L
sg4
VRead a keypress and return the resulting character as a byte string.\u000a\u000aNothing is echoed to the console. This call will block if a keypress is\u000anot already available, but will not wait for Enter to be pressed. If the\u000apressed key was a special function key, this will return '\u005c000' or\u000a'\u005cxe0'; the next call will return the keycode. The Control-C keypress\u000acannot be read with this function.
p123
sa(dp124
g1
Vgetche
p125
sg3
I01
sg9
L2L
sg4
VSimilar to getch(), but the keypress will be echoed if possible.
p126
sa(dp127
g1
Vgetwch
p128
sg3
I01
sg9
L2L
sg4
VWide char variant of getch(), returning a Unicode value.
p129
sa(dp130
g1
Vgetwche
p131
sg3
I01
sg9
L2L
sg4
VWide char variant of getche(), returning a Unicode value.
p132
sa(dp133
g1
Vheapmin
p134
sg3
I01
sg9
L2L
sg4
VMinimize the malloc() heap.\u000a\u000aForce the malloc() heap to clean itself up and return unused blocks\u000ato the operating system. On failure, this raises OSError.
p135
sa(dp136
g1
Vkbhit
p137
sg3
I01
sg9
L2L
sg4
VReturn true if a keypress is waiting to be read.
p138
sa(dp139
g1
Vlocking
p140
sg3
I01
sg9
L2L
sg4
VLock part of a file based on file descriptor fd from the C runtime.\u000a\u000aRaises IOError on failure. The locked region of the file extends from\u000athe current file position for nbytes bytes, and may continue beyond\u000athe end of the file. mode must be one of the LK_* constants listed\u000abelow. Multiple regions in a file may be locked at the same time, but\u000amay not overlap. Adjacent regions are not merged; they must be unlocked\u000aindividually.
p141
sa(dp142
g1
Vopen_osfhandle
p143
sg3
I01
sg9
L2L
sg4
VCreate a C runtime file descriptor from the file handle handle.\u000a\u000aThe flags parameter should be a bitwise OR of os.O_APPEND, os.O_RDONLY,\u000aand os.O_TEXT. The returned file descriptor may be used as a parameter\u000ato os.fdopen() to create a file object.
p144
sa(dp145
g1
Vputch
p146
sg3
I01
sg9
L2L
sg4
VPrint the byte string char to the console without buffering.
p147
sa(dp148
g1
Vputwch
p149
sg3
I01
sg9
L2L
sg4
VWide char variant of putch(), accepting a Unicode value.
p150
sa(dp151
g1
Vsetmode
p152
sg3
I01
sg9
L2L
sg4
VSet the line-end translation mode for the file descriptor fd.\u000a\u000aTo set it to text mode, flags should be os.O_TEXT; for binary, it\u000ashould be os.O_BINARY.\u000a\u000aReturn value is the previous mode.
p153
sa(dp154
g1
Vungetch
p155
sg3
I01
sg9
L2L
sg4
VOpposite of getch.\u000a\u000aCause the byte string char to be "pushed back" into the\u000aconsole buffer; it will be the next character read by\u000agetch() or getche().
p156
sa(dp157
g1
Vungetwch
p158
sg3
I01
sg9
L2L
sg4
VWide char variant of ungetch(), accepting a Unicode value.
p159
sasg9
L1L
s.