(dp0
Vname
p1
Vparser
p2
sVis_builtin
p3
I01
sVdoc
p4
VThis is an interface to Python's internal parser.
p5
sVchilds
p6
(lp7
(dp8
g1
VParserError
p9
sg3
I01
sVtype
p10
L3L
sg6
(lp11
(dp12
g1
V__cause__
p13
sg3
I01
sg10
L5L
sa(dp14
g1
V__context__
p15
sg3
I01
sg10
L5L
sa(dp16
g1
V__delattr__
p17
sg3
I01
sg10
L5L
sa(dp18
g1
V__dict__
p19
sg3
I01
sg10
L5L
sa(dp20
g1
V__dir__
p21
sg3
I01
sg10
L2L
sg4
V__dir__() -> list\u000adefault dir() implementation
p22
sa(dp23
g1
V__doc__
p24
sg3
I01
sg10
L5L
sa(dp25
g1
V__eq__
p26
sg3
I01
sg10
L5L
sa(dp27
g1
V__format__
p28
sg3
I01
sg10
L2L
sg4
Vdefault object formatter
p29
sa(dp30
g1
V__ge__
p31
sg3
I01
sg10
L5L
sa(dp32
g1
V__getattribute__
p33
sg3
I01
sg10
L5L
sa(dp34
g1
V__gt__
p35
sg3
I01
sg10
L5L
sa(dp36
g1
V__hash__
p37
sg3
I01
sg10
L5L
sa(dp38
g1
V__init__
p39
sg3
I01
sg10
L5L
sa(dp40
g1
V__init_subclass__
p41
sg3
I01
sg10
L2L
sg4
VThis method is called when a class is subclassed.\u000a\u000aThe default implementation does nothing. It may be\u000aoverridden to extend subclasses.\u000a
p42
sa(dp43
g1
V__le__
p44
sg3
I01
sg10
L5L
sa(dp45
g1
V__lt__
p46
sg3
I01
sg10
L5L
sa(dp47
g1
V__module__
p48
sg3
I01
sg10
L5L
sa(dp49
g1
V__ne__
p50
sg3
I01
sg10
L5L
sa(dp51
g1
V__new__
p52
sg3
I01
sg10
L2L
sg4
VCreate and return a new object.  See help(type) for accurate signature.
p53
sa(dp54
g1
V__reduce__
p55
sg3
I01
sg10
L2L
sg4
Nsa(dp56
g1
V__reduce_ex__
p57
sg3
I01
sg10
L2L
sg4
Vhelper for pickle
p58
sa(dp59
g1
V__repr__
p60
sg3
I01
sg10
L5L
sa(dp61
g1
V__setattr__
p62
sg3
I01
sg10
L5L
sa(dp63
g1
V__setstate__
p64
sg3
I01
sg10
L2L
sg4
Nsa(dp65
g1
V__sizeof__
p66
sg3
I01
sg10
L2L
sg4
V__sizeof__() -> int\u000asize of object in memory, in bytes
p67
sa(dp68
g1
V__str__
p69
sg3
I01
sg10
L5L
sa(dp70
g1
V__subclasshook__
p71
sg3
I01
sg10
L2L
sg4
VAbstract classes can override this to customize issubclass().\u000a\u000aThis is invoked early on by abc.ABCMeta.__subclasscheck__().\u000aIt should return True, False or NotImplemented.  If it returns\u000aNotImplemented, the normal algorithm is used.  Otherwise, it\u000aoverrides the normal algorithm (and the outcome is cached).\u000a
p72
sa(dp73
g1
V__suppress_context__
p74
sg3
I01
sg10
L5L
sa(dp75
g1
V__traceback__
p76
sg3
I01
sg10
L5L
sa(dp77
g1
V__weakref__
p78
sg3
I01
sg10
L5L
sa(dp79
g1
Vargs
p80
sg3
I01
sg10
L5L
sa(dp81
g1
Vwith_traceback
p82
sg3
I01
sg10
L2L
sg4
VException.with_traceback(tb) --\u000a    set self.__traceback__ to tb and return self.
p83
sasg4
Nsa(dp84
g1
VSTType
p85
sg3
I01
sg10
L3L
sg6
(lp86
(dp87
g1
g17
sg3
I01
sg10
L5L
sa(dp88
g1
g21
sg3
I01
sg10
L2L
sg4
V__dir__() -> list\u000adefault dir() implementation
p89
sa(dp90
g1
g24
sg3
I01
sg10
L5L
sa(dp91
g1
g26
sg3
I01
sg10
L5L
sa(dp92
g1
g28
sg3
I01
sg10
L2L
sg4
Vdefault object formatter
p93
sa(dp94
g1
g31
sg3
I01
sg10
L5L
sa(dp95
g1
g33
sg3
I01
sg10
L5L
sa(dp96
g1
g35
sg3
I01
sg10
L5L
sa(dp97
g1
g37
sg3
I01
sg10
L5L
sa(dp98
g1
g39
sg3
I01
sg10
L5L
sa(dp99
g1
g41
sg3
I01
sg10
L2L
sg4
VThis method is called when a class is subclassed.\u000a\u000aThe default implementation does nothing. It may be\u000aoverridden to extend subclasses.\u000a
p100
sa(dp101
g1
g44
sg3
I01
sg10
L5L
sa(dp102
g1
g46
sg3
I01
sg10
L5L
sa(dp103
g1
g50
sg3
I01
sg10
L5L
sa(dp104
g1
g52
sg3
I01
sg10
L2L
sg4
VCreate and return a new object.  See help(type) for accurate signature.
p105
sa(dp106
g1
g55
sg3
I01
sg10
L2L
sg4
Vhelper for pickle
p107
sa(dp108
g1
g57
sg3
I01
sg10
L2L
sg4
Vhelper for pickle
p109
sa(dp110
g1
g60
sg3
I01
sg10
L5L
sa(dp111
g1
g62
sg3
I01
sg10
L5L
sa(dp112
g1
g66
sg3
I01
sg10
L2L
sg4
VReturns size in memory, in bytes.
p113
sa(dp114
g1
g69
sg3
I01
sg10
L5L
sa(dp115
g1
g71
sg3
I01
sg10
L2L
sg4
VAbstract classes can override this to customize issubclass().\u000a\u000aThis is invoked early on by abc.ABCMeta.__subclasscheck__().\u000aIt should return True, False or NotImplemented.  If it returns\u000aNotImplemented, the normal algorithm is used.  Otherwise, it\u000aoverrides the normal algorithm (and the outcome is cached).\u000a
p116
sa(dp117
g1
Vcompile
p118
sg3
I01
sg10
L2L
sg4
VCompile this ST object into a code object.
p119
sa(dp120
g1
Visexpr
p121
sg3
I01
sg10
L2L
sg4
VDetermines if this ST object was created from an expression.
p122
sa(dp123
g1
Vissuite
p124
sg3
I01
sg10
L2L
sg4
VDetermines if this ST object was created from a suite.
p125
sa(dp126
g1
Vtolist
p127
sg3
I01
sg10
L2L
sg4
VCreates a list-tree representation of this ST.
p128
sa(dp129
g1
Vtotuple
p130
sg3
I01
sg10
L2L
sg4
VCreates a tuple-tree representation of this ST.
p131
sasg4
VIntermediate representation of a Python parse tree.
p132
sa(dp133
g1
V__copyright__
p134
sg3
I01
sg10
L5L
sa(dp135
g1
g24
sg3
I01
sg10
L5L
sa(dp136
g1
V__loader__
p137
sg3
I01
sg10
L3L
sg6
(lp138
(dp139
g1
g17
sg3
I01
sg10
L5L
sa(dp140
g1
g19
sg3
I01
sg10
L5L
sa(dp141
g1
g21
sg3
I01
sg10
L2L
sg4
V__dir__() -> list\u000adefault dir() implementation
p142
sa(dp143
g1
g24
sg3
I01
sg10
L5L
sa(dp144
g1
g26
sg3
I01
sg10
L5L
sa(dp145
g1
g28
sg3
I01
sg10
L2L
sg4
Vdefault object formatter
p146
sa(dp147
g1
g31
sg3
I01
sg10
L5L
sa(dp148
g1
g33
sg3
I01
sg10
L5L
sa(dp149
g1
g35
sg3
I01
sg10
L5L
sa(dp150
g1
g37
sg3
I01
sg10
L5L
sa(dp151
g1
g39
sg3
I01
sg10
L5L
sa(dp152
g1
g41
sg3
I01
sg10
L2L
sg4
VThis method is called when a class is subclassed.\u000a\u000aThe default implementation does nothing. It may be\u000aoverridden to extend subclasses.\u000a
p153
sa(dp154
g1
g44
sg3
I01
sg10
L5L
sa(dp155
g1
g46
sg3
I01
sg10
L5L
sa(dp156
g1
g48
sg3
I01
sg10
L5L
sa(dp157
g1
g50
sg3
I01
sg10
L5L
sa(dp158
g1
g52
sg3
I01
sg10
L2L
sg4
VCreate and return a new object.  See help(type) for accurate signature.
p159
sa(dp160
g1
g55
sg3
I01
sg10
L2L
sg4
Vhelper for pickle
p161
sa(dp162
g1
g57
sg3
I01
sg10
L2L
sg4
Vhelper for pickle
p163
sa(dp164
g1
g60
sg3
I01
sg10
L5L
sa(dp165
g1
g62
sg3
I01
sg10
L5L
sa(dp166
g1
g66
sg3
I01
sg10
L2L
sg4
V__sizeof__() -> int\u000asize of object in memory, in bytes
p167
sa(dp168
g1
g69
sg3
I01
sg10
L5L
sa(dp169
g1
g71
sg3
I01
sg10
L2L
sg4
VAbstract classes can override this to customize issubclass().\u000a\u000aThis is invoked early on by abc.ABCMeta.__subclasscheck__().\u000aIt should return True, False or NotImplemented.  If it returns\u000aNotImplemented, the normal algorithm is used.  Otherwise, it\u000aoverrides the normal algorithm (and the outcome is cached).\u000a
p170
sa(dp171
g1
g78
sg3
I01
sg10
L5L
sa(dp172
g1
Vcreate_module
p173
sg3
I01
sg10
L5L
sa(dp174
g1
Vexec_module
p175
sg3
I01
sg10
L5L
sa(dp176
g1
Vfind_module
p177
sg3
I01
sg10
L5L
sa(dp178
g1
Vfind_spec
p179
sg3
I01
sg10
L5L
sa(dp180
g1
Vget_code
p181
sg3
I01
sg10
L5L
sa(dp182
g1
Vget_source
p183
sg3
I01
sg10
L5L
sa(dp184
g1
Vis_package
p185
sg3
I01
sg10
L5L
sa(dp186
g1
Vload_module
p187
sg3
I01
sg10
L5L
sa(dp188
g1
Vmodule_repr
p189
sg3
I01
sg10
L5L
sasg4
VMeta path import for built-in modules.\u000a\u000a    All methods are either class or static methods to avoid the need to\u000a    instantiate the class.\u000a\u000a    
p190
sa(dp191
g1
V__name__
p192
sg3
I01
sg10
L5L
sa(dp193
g1
V__package__
p194
sg3
I01
sg10
L5L
sa(dp195
g1
V__spec__
p196
sg3
I01
sg10
L5L
sa(dp197
g1
V__version__
p198
sg3
I01
sg10
L5L
sa(dp199
g1
V_pickler
p200
sg3
I01
sg10
L2L
sg4
VReturns the pickle magic to allow ST objects to be pickled.
p201
sa(dp202
g1
Vcompilest
p203
sg3
I01
sg10
L2L
sg4
VCompiles an ST object into a code object.
p204
sa(dp205
g1
Vexpr
p206
sg3
I01
sg10
L2L
sg4
VCreates an ST object from an expression.
p207
sa(dp208
g1
g121
sg3
I01
sg10
L2L
sg4
VDetermines if an ST object was created from an expression.
p209
sa(dp210
g1
g124
sg3
I01
sg10
L2L
sg4
VDetermines if an ST object was created from a suite.
p211
sa(dp212
g1
Vsequence2st
p213
sg3
I01
sg10
L2L
sg4
VCreates an ST object from a tree representation.
p214
sa(dp215
g1
Vst2list
p216
sg3
I01
sg10
L2L
sg4
VCreates a list-tree representation of an ST.
p217
sa(dp218
g1
Vst2tuple
p219
sg3
I01
sg10
L2L
sg4
VCreates a tuple-tree representation of an ST.
p220
sa(dp221
g1
Vsuite
p222
sg3
I01
sg10
L2L
sg4
VCreates an ST object from a suite.
p223
sa(dp224
g1
Vtuple2st
p225
sg3
I01
sg10
L2L
sg4
VCreates an ST object from a tree representation.
p226
sasg10
L1L
s.