(dp0
Vname
p1
Vzipimport
p2
sVis_builtin
p3
I01
sVdoc
p4
Vzipimport provides support for importing Python modules from Zip archives.\u000a\u000aThis module exports three objects:\u000a- zipimporter: a class; its constructor takes a path to a Zip archive.\u000a- ZipImportError: exception raised by zipimporter objects. It's a\u000a  subclass of ImportError, so it can be caught as ImportError, too.\u000a- _zip_directory_cache: a dict, mapping archive paths to zip directory\u000a  info dicts, as used in zipimporter._files.\u000a\u000aIt is usually not needed to use the zipimport module explicitly; it is\u000aused by the builtin import mechanism for sys.path items that are paths\u000ato Zip archives.
p5
sVchilds
p6
(lp7
(dp8
g1
VZipImportError
p9
sg3
I01
sVtype
p10
L3L
sg6
(lp11
(dp12
g1
V__cause__
p13
sg3
I01
sg10
L5L
sa(dp14
g1
V__context__
p15
sg3
I01
sg10
L5L
sa(dp16
g1
V__delattr__
p17
sg3
I01
sg10
L5L
sa(dp18
g1
V__dict__
p19
sg3
I01
sg10
L5L
sa(dp20
g1
V__dir__
p21
sg3
I01
sg10
L2L
sg4
V__dir__() -> list\u000adefault dir() implementation
p22
sa(dp23
g1
V__doc__
p24
sg3
I01
sg10
L5L
sa(dp25
g1
V__eq__
p26
sg3
I01
sg10
L5L
sa(dp27
g1
V__format__
p28
sg3
I01
sg10
L2L
sg4
Vdefault object formatter
p29
sa(dp30
g1
V__ge__
p31
sg3
I01
sg10
L5L
sa(dp32
g1
V__getattribute__
p33
sg3
I01
sg10
L5L
sa(dp34
g1
V__gt__
p35
sg3
I01
sg10
L5L
sa(dp36
g1
V__hash__
p37
sg3
I01
sg10
L5L
sa(dp38
g1
V__init__
p39
sg3
I01
sg10
L5L
sa(dp40
g1
V__init_subclass__
p41
sg3
I01
sg10
L2L
sg4
VThis method is called when a class is subclassed.\u000a\u000aThe default implementation does nothing. It may be\u000aoverridden to extend subclasses.\u000a
p42
sa(dp43
g1
V__le__
p44
sg3
I01
sg10
L5L
sa(dp45
g1
V__lt__
p46
sg3
I01
sg10
L5L
sa(dp47
g1
V__module__
p48
sg3
I01
sg10
L5L
sa(dp49
g1
V__ne__
p50
sg3
I01
sg10
L5L
sa(dp51
g1
V__new__
p52
sg3
I01
sg10
L2L
sg4
VCreate and return a new object.  See help(type) for accurate signature.
p53
sa(dp54
g1
V__reduce__
p55
sg3
I01
sg10
L2L
sg4
Nsa(dp56
g1
V__reduce_ex__
p57
sg3
I01
sg10
L2L
sg4
Vhelper for pickle
p58
sa(dp59
g1
V__repr__
p60
sg3
I01
sg10
L5L
sa(dp61
g1
V__setattr__
p62
sg3
I01
sg10
L5L
sa(dp63
g1
V__setstate__
p64
sg3
I01
sg10
L2L
sg4
Nsa(dp65
g1
V__sizeof__
p66
sg3
I01
sg10
L2L
sg4
V__sizeof__() -> int\u000asize of object in memory, in bytes
p67
sa(dp68
g1
V__str__
p69
sg3
I01
sg10
L5L
sa(dp70
g1
V__subclasshook__
p71
sg3
I01
sg10
L2L
sg4
VAbstract classes can override this to customize issubclass().\u000a\u000aThis is invoked early on by abc.ABCMeta.__subclasscheck__().\u000aIt should return True, False or NotImplemented.  If it returns\u000aNotImplemented, the normal algorithm is used.  Otherwise, it\u000aoverrides the normal algorithm (and the outcome is cached).\u000a
p72
sa(dp73
g1
V__suppress_context__
p74
sg3
I01
sg10
L5L
sa(dp75
g1
V__traceback__
p76
sg3
I01
sg10
L5L
sa(dp77
g1
V__weakref__
p78
sg3
I01
sg10
L5L
sa(dp79
g1
Vargs
p80
sg3
I01
sg10
L5L
sa(dp81
g1
Vmsg
p82
sg3
I01
sg10
L5L
sa(dp83
g1
g1
sg3
I01
sg10
L5L
sa(dp84
g1
Vpath
p85
sg3
I01
sg10
L5L
sa(dp86
g1
Vwith_traceback
p87
sg3
I01
sg10
L2L
sg4
VException.with_traceback(tb) --\u000a    set self.__traceback__ to tb and return self.
p88
sasg4
Nsa(dp89
g1
g24
sg3
I01
sg10
L5L
sa(dp90
g1
V__loader__
p91
sg3
I01
sg10
L3L
sg6
(lp92
(dp93
g1
g17
sg3
I01
sg10
L5L
sa(dp94
g1
g19
sg3
I01
sg10
L5L
sa(dp95
g1
g21
sg3
I01
sg10
L2L
sg4
V__dir__() -> list\u000adefault dir() implementation
p96
sa(dp97
g1
g24
sg3
I01
sg10
L5L
sa(dp98
g1
g26
sg3
I01
sg10
L5L
sa(dp99
g1
g28
sg3
I01
sg10
L2L
sg4
Vdefault object formatter
p100
sa(dp101
g1
g31
sg3
I01
sg10
L5L
sa(dp102
g1
g33
sg3
I01
sg10
L5L
sa(dp103
g1
g35
sg3
I01
sg10
L5L
sa(dp104
g1
g37
sg3
I01
sg10
L5L
sa(dp105
g1
g39
sg3
I01
sg10
L5L
sa(dp106
g1
g41
sg3
I01
sg10
L2L
sg4
VThis method is called when a class is subclassed.\u000a\u000aThe default implementation does nothing. It may be\u000aoverridden to extend subclasses.\u000a
p107
sa(dp108
g1
g44
sg3
I01
sg10
L5L
sa(dp109
g1
g46
sg3
I01
sg10
L5L
sa(dp110
g1
g48
sg3
I01
sg10
L5L
sa(dp111
g1
g50
sg3
I01
sg10
L5L
sa(dp112
g1
g52
sg3
I01
sg10
L2L
sg4
VCreate and return a new object.  See help(type) for accurate signature.
p113
sa(dp114
g1
g55
sg3
I01
sg10
L2L
sg4
Vhelper for pickle
p115
sa(dp116
g1
g57
sg3
I01
sg10
L2L
sg4
Vhelper for pickle
p117
sa(dp118
g1
g60
sg3
I01
sg10
L5L
sa(dp119
g1
g62
sg3
I01
sg10
L5L
sa(dp120
g1
g66
sg3
I01
sg10
L2L
sg4
V__sizeof__() -> int\u000asize of object in memory, in bytes
p121
sa(dp122
g1
g69
sg3
I01
sg10
L5L
sa(dp123
g1
g71
sg3
I01
sg10
L2L
sg4
VAbstract classes can override this to customize issubclass().\u000a\u000aThis is invoked early on by abc.ABCMeta.__subclasscheck__().\u000aIt should return True, False or NotImplemented.  If it returns\u000aNotImplemented, the normal algorithm is used.  Otherwise, it\u000aoverrides the normal algorithm (and the outcome is cached).\u000a
p124
sa(dp125
g1
g78
sg3
I01
sg10
L5L
sa(dp126
g1
Vcreate_module
p127
sg3
I01
sg10
L5L
sa(dp128
g1
Vexec_module
p129
sg3
I01
sg10
L5L
sa(dp130
g1
Vfind_module
p131
sg3
I01
sg10
L5L
sa(dp132
g1
Vfind_spec
p133
sg3
I01
sg10
L5L
sa(dp134
g1
Vget_code
p135
sg3
I01
sg10
L5L
sa(dp136
g1
Vget_source
p137
sg3
I01
sg10
L5L
sa(dp138
g1
Vis_package
p139
sg3
I01
sg10
L5L
sa(dp140
g1
Vload_module
p141
sg3
I01
sg10
L5L
sa(dp142
g1
Vmodule_repr
p143
sg3
I01
sg10
L5L
sasg4
VMeta path import for built-in modules.\u000a\u000a    All methods are either class or static methods to avoid the need to\u000a    instantiate the class.\u000a\u000a    
p144
sa(dp145
g1
V__name__
p146
sg3
I01
sg10
L5L
sa(dp147
g1
V__package__
p148
sg3
I01
sg10
L5L
sa(dp149
g1
V__spec__
p150
sg3
I01
sg10
L5L
sa(dp151
g1
V_zip_directory_cache
p152
sg3
I01
sg10
L5L
sa(dp153
g1
Vzipimporter
p154
sg3
I01
sg10
L3L
sg6
(lp155
(dp156
g1
g17
sg3
I01
sg10
L5L
sa(dp157
g1
g21
sg3
I01
sg10
L2L
sg4
V__dir__() -> list\u000adefault dir() implementation
p158
sa(dp159
g1
g24
sg3
I01
sg10
L5L
sa(dp160
g1
g26
sg3
I01
sg10
L5L
sa(dp161
g1
g28
sg3
I01
sg10
L2L
sg4
Vdefault object formatter
p162
sa(dp163
g1
g31
sg3
I01
sg10
L5L
sa(dp164
g1
g33
sg3
I01
sg10
L5L
sa(dp165
g1
g35
sg3
I01
sg10
L5L
sa(dp166
g1
g37
sg3
I01
sg10
L5L
sa(dp167
g1
g39
sg3
I01
sg10
L5L
sa(dp168
g1
g41
sg3
I01
sg10
L2L
sg4
VThis method is called when a class is subclassed.\u000a\u000aThe default implementation does nothing. It may be\u000aoverridden to extend subclasses.\u000a
p169
sa(dp170
g1
g44
sg3
I01
sg10
L5L
sa(dp171
g1
g46
sg3
I01
sg10
L5L
sa(dp172
g1
g50
sg3
I01
sg10
L5L
sa(dp173
g1
g52
sg3
I01
sg10
L2L
sg4
VCreate and return a new object.  See help(type) for accurate signature.
p174
sa(dp175
g1
g55
sg3
I01
sg10
L2L
sg4
Vhelper for pickle
p176
sa(dp177
g1
g57
sg3
I01
sg10
L2L
sg4
Vhelper for pickle
p178
sa(dp179
g1
g60
sg3
I01
sg10
L5L
sa(dp180
g1
g62
sg3
I01
sg10
L5L
sa(dp181
g1
g66
sg3
I01
sg10
L2L
sg4
V__sizeof__() -> int\u000asize of object in memory, in bytes
p182
sa(dp183
g1
g69
sg3
I01
sg10
L5L
sa(dp184
g1
g71
sg3
I01
sg10
L2L
sg4
VAbstract classes can override this to customize issubclass().\u000a\u000aThis is invoked early on by abc.ABCMeta.__subclasscheck__().\u000aIt should return True, False or NotImplemented.  If it returns\u000aNotImplemented, the normal algorithm is used.  Otherwise, it\u000aoverrides the normal algorithm (and the outcome is cached).\u000a
p185
sa(dp186
g1
V_files
p187
sg3
I01
sg10
L5L
sa(dp188
g1
Varchive
p189
sg3
I01
sg10
L5L
sa(dp190
g1
Vfind_loader
p191
sg3
I01
sg10
L2L
sg4
Vfind_loader(fullname, path=None) -> self, str or None.\u000a\u000aSearch for a module specified by 'fullname'. 'fullname' must be the\u000afully qualified (dotted) module name. It returns the zipimporter\u000ainstance itself if the module was found, a string containing the\u000afull path name if it's possibly a portion of a namespace package,\u000aor None otherwise. The optional 'path' argument is ignored -- it's\u000a there for compatibility with the importer protocol.
p192
sa(dp193
g1
g131
sg3
I01
sg10
L2L
sg4
Vfind_module(fullname, path=None) -> self or None.\u000a\u000aSearch for a module specified by 'fullname'. 'fullname' must be the\u000afully qualified (dotted) module name. It returns the zipimporter\u000ainstance itself if the module was found, or None if it wasn't.\u000aThe optional 'path' argument is ignored -- it's there for compatibility\u000awith the importer protocol.
p194
sa(dp195
g1
g135
sg3
I01
sg10
L2L
sg4
Vget_code(fullname) -> code object.\u000a\u000aReturn the code object for the specified module. Raise ZipImportError\u000aif the module couldn't be found.
p196
sa(dp197
g1
Vget_data
p198
sg3
I01
sg10
L2L
sg4
Vget_data(pathname) -> string with file data.\u000a\u000aReturn the data associated with 'pathname'. Raise IOError if\u000athe file wasn't found.
p199
sa(dp200
g1
Vget_filename
p201
sg3
I01
sg10
L2L
sg4
Vget_filename(fullname) -> filename string.\u000a\u000aReturn the filename for the specified module.
p202
sa(dp203
g1
g137
sg3
I01
sg10
L2L
sg4
Vget_source(fullname) -> source string.\u000a\u000aReturn the source code for the specified module. Raise ZipImportError\u000aif the module couldn't be found, return None if the archive does\u000acontain the module, but has no source for it.
p204
sa(dp205
g1
g139
sg3
I01
sg10
L2L
sg4
Vis_package(fullname) -> bool.\u000a\u000aReturn True if the module specified by fullname is a package.\u000aRaise ZipImportError if the module couldn't be found.
p206
sa(dp207
g1
g141
sg3
I01
sg10
L2L
sg4
Vload_module(fullname) -> module.\u000a\u000aLoad the module specified by 'fullname'. 'fullname' must be the\u000afully qualified (dotted) module name. It returns the imported\u000amodule, or raises ZipImportError if it wasn't found.
p208
sa(dp209
g1
Vprefix
p210
sg3
I01
sg10
L5L
sasg4
Vzipimporter(archivepath) -> zipimporter object\u000a\u000aCreate a new zipimporter instance. 'archivepath' must be a path to\u000aa zipfile, or to a specific path inside a zipfile. For example, it can be\u000a'/tmp/myimport.zip', or '/tmp/myimport.zip/mydirectory', if mydirectory is a\u000avalid directory inside the archive.\u000a\u000a'ZipImportError is raised if 'archivepath' doesn't point to a valid Zip\u000aarchive.\u000a\u000aThe 'archive' attribute of zipimporter objects contains the name of the\u000azipfile targeted.
p211
sasg10
L1L
s.