(dp0
S'doc'
p1
NsS'is_builtin'
p2
I01
sS'childs'
p3
(lp4
(dp5
g2
I01
sS'type'
p6
I5
sS'name'
p7
S'__doc__'
p8
sa(dp9
g2
I01
sg6
I5
sg7
S'__map_cp932ext'
p10
sa(dp11
g2
I01
sg6
I5
sg7
S'__map_jisx0208'
p12
sa(dp13
g2
I01
sg6
I5
sg7
S'__map_jisx0212'
p14
sa(dp15
g2
I01
sg6
I5
sg7
S'__map_jisx0213_1_bmp'
p16
sa(dp17
g2
I01
sg6
I5
sg7
S'__map_jisx0213_1_emp'
p18
sa(dp19
g2
I01
sg6
I5
sg7
S'__map_jisx0213_2_bmp'
p20
sa(dp21
g2
I01
sg6
I5
sg7
S'__map_jisx0213_2_emp'
p22
sa(dp23
g2
I01
sg6
I5
sg7
S'__map_jisx0213_bmp'
p24
sa(dp25
g2
I01
sg6
I5
sg7
S'__map_jisx0213_emp'
p26
sa(dp27
g2
I01
sg6
I5
sg7
S'__map_jisx0213_pair'
p28
sa(dp29
g2
I01
sg6
I5
sg7
S'__map_jisxcommon'
p30
sa(dp31
g2
I01
sg6
I5
sg7
S'__name__'
p32
sa(dp33
g2
I01
sg6
I5
sg7
S'__package__'
p34
sa(dp35
g1
S''
p36
sg2
I01
sg6
I2
sg7
S'getcodec'
p37
sasg6
I1
sg7
S'_codecs_jp'
p38
s.