(dp0
S'doc'
p1
NsS'is_builtin'
p2
I01
sS'childs'
p3
(lp4
(dp5
g2
I01
sS'type'
p6
I5
sS'name'
p7
S'__doc__'
p8
sa(dp9
g2
I01
sg6
I5
sg7
S'__map_cp949'
p10
sa(dp11
g2
I01
sg6
I5
sg7
S'__map_cp949ext'
p12
sa(dp13
g2
I01
sg6
I5
sg7
S'__map_ksx1001'
p14
sa(dp15
g2
I01
sg6
I5
sg7
S'__name__'
p16
sa(dp17
g2
I01
sg6
I5
sg7
S'__package__'
p18
sa(dp19
g1
S''
p20
sg2
I01
sg6
I2
sg7
S'getcodec'
p21
sasg6
I1
sg7
S'_codecs_kr'
p22
s.