(dp0
S'doc'
p1
NsS'is_builtin'
p2
I01
sS'childs'
p3
(lp4
(dp5
g2
I01
sS'type'
p6
I5
sS'name'
p7
S'__doc__'
p8
sa(dp9
g2
I01
sg6
I5
sg7
S'__map_big5'
p10
sa(dp11
g2
I01
sg6
I5
sg7
S'__map_cp950ext'
p12
sa(dp13
g2
I01
sg6
I5
sg7
S'__name__'
p14
sa(dp15
g2
I01
sg6
I5
sg7
S'__package__'
p16
sa(dp17
g1
S''
p18
sg2
I01
sg6
I2
sg7
S'getcodec'
p19
sasg6
I1
sg7
S'_codecs_tw'
p20
s.