(dp0
S'doc'
p1
S'Support for POSIX locales.'
p2
sS'is_builtin'
p3
I01
sS'childs'
p4
(lp5
(dp6
g3
I01
sS'type'
p7
I5
sS'name'
p8
S'CHAR_MAX'
p9
sa(dp10
g1
Nsg3
I01
sg4
(lp11
(dp12
g3
I01
sg7
I5
sg8
S'__delattr__'
p13
sa(dp14
g3
I01
sg7
I5
sg8
S'__dict__'
p15
sa(dp16
g3
I01
sg7
I5
sg8
S'__doc__'
p17
sa(dp18
g1
S'default object formatter'
p19
sg3
I01
sg7
I2
sg8
S'__format__'
p20
sa(dp21
g3
I01
sg7
I5
sg8
S'__getattribute__'
p22
sa(dp23
g3
I01
sg7
I5
sg8
S'__getitem__'
p24
sa(dp25
g3
I01
sg7
I5
sg8
S'__getslice__'
p26
sa(dp27
g3
I01
sg7
I5
sg8
S'__hash__'
p28
sa(dp29
g3
I01
sg7
I5
sg8
S'__init__'
p30
sa(dp31
g3
I01
sg7
I5
sg8
S'__module__'
p32
sa(dp33
g1
S'T.__new__(S, ...) -> a new object with type S, a subtype of T'
p34
sg3
I01
sg7
I2
sg8
S'__new__'
p35
sa(dp36
g1
Nsg3
I01
sg7
I2
sg8
S'__reduce__'
p37
sa(dp38
g1
S'helper for pickle'
p39
sg3
I01
sg7
I2
sg8
S'__reduce_ex__'
p40
sa(dp41
g3
I01
sg7
I5
sg8
S'__repr__'
p42
sa(dp43
g3
I01
sg7
I5
sg8
S'__setattr__'
p44
sa(dp45
g1
Nsg3
I01
sg7
I2
sg8
S'__setstate__'
p46
sa(dp47
g1
S'__sizeof__() -> int\nsize of object in memory, in bytes'
p48
sg3
I01
sg7
I2
sg8
S'__sizeof__'
p49
sa(dp50
g3
I01
sg7
I5
sg8
S'__str__'
p51
sa(dp52
g1
S'Abstract classes can override this to customize issubclass().\n\nThis is invoked early on by abc.ABCMeta.__subclasscheck__().\nIt should return True, False or NotImplemented.  If it returns\nNotImplemented, the normal algorithm is used.  Otherwise, it\noverrides the normal algorithm (and the outcome is cached).\n'
p53
sg3
I01
sg7
I2
sg8
S'__subclasshook__'
p54
sa(dp55
g1
Nsg3
I01
sg7
I2
sg8
S'__unicode__'
p56
sa(dp57
g3
I01
sg7
I5
sg8
S'__weakref__'
p58
sa(dp59
g3
I01
sg7
I5
sg8
S'args'
p60
sa(dp61
g3
I01
sg7
I5
sg8
S'message'
p62
sasg7
I3
sg8
S'Error'
p63
sa(dp64
g3
I01
sg7
I5
sg8
S'LC_ALL'
p65
sa(dp66
g3
I01
sg7
I5
sg8
S'LC_COLLATE'
p67
sa(dp68
g3
I01
sg7
I5
sg8
S'LC_CTYPE'
p69
sa(dp70
g3
I01
sg7
I5
sg8
S'LC_MONETARY'
p71
sa(dp72
g3
I01
sg7
I5
sg8
S'LC_NUMERIC'
p73
sa(dp74
g3
I01
sg7
I5
sg8
S'LC_TIME'
p75
sa(dp76
g3
I01
sg7
I5
sg8
g17
sa(dp77
g3
I01
sg7
I5
sg8
S'__name__'
p78
sa(dp79
g3
I01
sg7
I5
sg8
S'__package__'
p80
sa(dp81
g1
Nsg3
I01
sg7
I2
sg8
S'_getdefaultlocale'
p82
sa(dp83
g1
S'() -> dict. Returns numeric and monetary locale-specific parameters.'
p84
sg3
I01
sg7
I2
sg8
S'localeconv'
p85
sa(dp86
g1
S'(integer,string=None) -> string. Activates/queries locale processing.'
p87
sg3
I01
sg7
I2
sg8
S'setlocale'
p88
sa(dp89
g1
S'string,string -> int. Compares two strings according to the locale.'
p90
sg3
I01
sg7
I2
sg8
S'strcoll'
p91
sa(dp92
g1
S'string -> string. Returns a string that behaves for cmp locale-aware.'
p93
sg3
I01
sg7
I2
sg8
S'strxfrm'
p94
sasg7
I1
sg8
S'_locale'
p95
s.