(dp0
S'doc'
p1
NsS'is_builtin'
p2
I01
sS'childs'
p3
(lp4
(dp5
g1
Nsg2
I01
sg3
(lp6
(dp7
g2
I01
sS'type'
p8
I5
sS'name'
p9
S'__delattr__'
p10
sa(dp11
g2
I01
sg8
I5
sg9
S'__doc__'
p12
sa(dp13
g1
S'default object formatter'
p14
sg2
I01
sg8
I2
sg9
S'__format__'
p15
sa(dp16
g2
I01
sg8
I5
sg9
S'__getattribute__'
p17
sa(dp18
g2
I01
sg8
I5
sg9
S'__hash__'
p19
sa(dp20
g2
I01
sg8
I5
sg9
S'__init__'
p21
sa(dp22
g1
S'T.__new__(S, ...) -> a new object with type S, a subtype of T'
p23
sg2
I01
sg8
I2
sg9
S'__new__'
p24
sa(dp25
g1
S'helper for pickle'
p26
sg2
I01
sg8
I2
sg9
S'__reduce__'
p27
sa(dp28
g1
S'helper for pickle'
p29
sg2
I01
sg8
I2
sg9
S'__reduce_ex__'
p30
sa(dp31
g2
I01
sg8
I5
sg9
S'__repr__'
p32
sa(dp33
g2
I01
sg8
I5
sg9
S'__setattr__'
p34
sa(dp35
g1
S'__sizeof__() -> int\nsize of object in memory, in bytes'
p36
sg2
I01
sg8
I2
sg9
S'__sizeof__'
p37
sa(dp38
g2
I01
sg8
I5
sg9
S'__str__'
p39
sa(dp40
g1
S'Abstract classes can override this to customize issubclass().\n\nThis is invoked early on by abc.ABCMeta.__subclasscheck__().\nIt should return True, False or NotImplemented.  If it returns\nNotImplemented, the normal algorithm is used.  Otherwise, it\noverrides the normal algorithm (and the outcome is cached).\n'
p41
sg2
I01
sg8
I2
sg9
S'__subclasshook__'
p42
sa(dp43
g1
Nsg2
I01
sg8
I2
sg9
S'decode'
p44
sa(dp45
g2
I01
sg8
I5
sg9
S'errors'
p46
sa(dp47
g1
Nsg2
I01
sg8
I2
sg9
S'reset'
p48
sasg8
I3
sg9
S'MultibyteIncrementalDecoder'
p49
sa(dp50
g1
Nsg2
I01
sg3
(lp51
(dp52
g2
I01
sg8
I5
sg9
g10
sa(dp53
g2
I01
sg8
I5
sg9
g12
sa(dp54
g1
S'default object formatter'
p55
sg2
I01
sg8
I2
sg9
g15
sa(dp56
g2
I01
sg8
I5
sg9
g17
sa(dp57
g2
I01
sg8
I5
sg9
g19
sa(dp58
g2
I01
sg8
I5
sg9
g21
sa(dp59
g1
S'T.__new__(S, ...) -> a new object with type S, a subtype of T'
p60
sg2
I01
sg8
I2
sg9
g24
sa(dp61
g1
S'helper for pickle'
p62
sg2
I01
sg8
I2
sg9
g27
sa(dp63
g1
S'helper for pickle'
p64
sg2
I01
sg8
I2
sg9
g30
sa(dp65
g2
I01
sg8
I5
sg9
g32
sa(dp66
g2
I01
sg8
I5
sg9
g34
sa(dp67
g1
S'__sizeof__() -> int\nsize of object in memory, in bytes'
p68
sg2
I01
sg8
I2
sg9
g37
sa(dp69
g2
I01
sg8
I5
sg9
g39
sa(dp70
g1
S'Abstract classes can override this to customize issubclass().\n\nThis is invoked early on by abc.ABCMeta.__subclasscheck__().\nIt should return True, False or NotImplemented.  If it returns\nNotImplemented, the normal algorithm is used.  Otherwise, it\noverrides the normal algorithm (and the outcome is cached).\n'
p71
sg2
I01
sg8
I2
sg9
g42
sa(dp72
g1
Nsg2
I01
sg8
I2
sg9
S'encode'
p73
sa(dp74
g2
I01
sg8
I5
sg9
g46
sa(dp75
g1
Nsg2
I01
sg8
I2
sg9
g48
sasg8
I3
sg9
S'MultibyteIncrementalEncoder'
p76
sa(dp77
g1
Nsg2
I01
sg3
(lp78
(dp79
g2
I01
sg8
I5
sg9
g10
sa(dp80
g2
I01
sg8
I5
sg9
g12
sa(dp81
g1
S'default object formatter'
p82
sg2
I01
sg8
I2
sg9
g15
sa(dp83
g2
I01
sg8
I5
sg9
g17
sa(dp84
g2
I01
sg8
I5
sg9
g19
sa(dp85
g2
I01
sg8
I5
sg9
g21
sa(dp86
g1
S'T.__new__(S, ...) -> a new object with type S, a subtype of T'
p87
sg2
I01
sg8
I2
sg9
g24
sa(dp88
g1
S'helper for pickle'
p89
sg2
I01
sg8
I2
sg9
g27
sa(dp90
g1
S'helper for pickle'
p91
sg2
I01
sg8
I2
sg9
g30
sa(dp92
g2
I01
sg8
I5
sg9
g32
sa(dp93
g2
I01
sg8
I5
sg9
g34
sa(dp94
g1
S'__sizeof__() -> int\nsize of object in memory, in bytes'
p95
sg2
I01
sg8
I2
sg9
g37
sa(dp96
g2
I01
sg8
I5
sg9
g39
sa(dp97
g1
S'Abstract classes can override this to customize issubclass().\n\nThis is invoked early on by abc.ABCMeta.__subclasscheck__().\nIt should return True, False or NotImplemented.  If it returns\nNotImplemented, the normal algorithm is used.  Otherwise, it\noverrides the normal algorithm (and the outcome is cached).\n'
p98
sg2
I01
sg8
I2
sg9
g42
sa(dp99
g2
I01
sg8
I5
sg9
g46
sa(dp100
g1
Nsg2
I01
sg8
I2
sg9
S'read'
p101
sa(dp102
g1
Nsg2
I01
sg8
I2
sg9
S'readline'
p103
sa(dp104
g1
Nsg2
I01
sg8
I2
sg9
S'readlines'
p105
sa(dp106
g1
Nsg2
I01
sg8
I2
sg9
g48
sa(dp107
g2
I01
sg8
I5
sg9
S'stream'
p108
sasg8
I3
sg9
S'MultibyteStreamReader'
p109
sa(dp110
g1
Nsg2
I01
sg3
(lp111
(dp112
g2
I01
sg8
I5
sg9
g10
sa(dp113
g2
I01
sg8
I5
sg9
g12
sa(dp114
g1
S'default object formatter'
p115
sg2
I01
sg8
I2
sg9
g15
sa(dp116
g2
I01
sg8
I5
sg9
g17
sa(dp117
g2
I01
sg8
I5
sg9
g19
sa(dp118
g2
I01
sg8
I5
sg9
g21
sa(dp119
g1
S'T.__new__(S, ...) -> a new object with type S, a subtype of T'
p120
sg2
I01
sg8
I2
sg9
g24
sa(dp121
g1
S'helper for pickle'
p122
sg2
I01
sg8
I2
sg9
g27
sa(dp123
g1
S'helper for pickle'
p124
sg2
I01
sg8
I2
sg9
g30
sa(dp125
g2
I01
sg8
I5
sg9
g32
sa(dp126
g2
I01
sg8
I5
sg9
g34
sa(dp127
g1
S'__sizeof__() -> int\nsize of object in memory, in bytes'
p128
sg2
I01
sg8
I2
sg9
g37
sa(dp129
g2
I01
sg8
I5
sg9
g39
sa(dp130
g1
S'Abstract classes can override this to customize issubclass().\n\nThis is invoked early on by abc.ABCMeta.__subclasscheck__().\nIt should return True, False or NotImplemented.  If it returns\nNotImplemented, the normal algorithm is used.  Otherwise, it\noverrides the normal algorithm (and the outcome is cached).\n'
p131
sg2
I01
sg8
I2
sg9
g42
sa(dp132
g2
I01
sg8
I5
sg9
g46
sa(dp133
g1
Nsg2
I01
sg8
I2
sg9
g48
sa(dp134
g2
I01
sg8
I5
sg9
g108
sa(dp135
g1
Nsg2
I01
sg8
I2
sg9
S'write'
p136
sa(dp137
g1
Nsg2
I01
sg8
I2
sg9
S'writelines'
p138
sasg8
I3
sg9
S'MultibyteStreamWriter'
p139
sa(dp140
g1
Nsg2
I01
sg8
I2
sg9
S'__create_codec'
p141
sa(dp142
g2
I01
sg8
I5
sg9
g12
sa(dp143
g2
I01
sg8
I5
sg9
S'__name__'
p144
sa(dp145
g2
I01
sg8
I5
sg9
S'__package__'
p146
sasg8
I1
sg9
S'_multibytecodec'
p147
s.