(dp0
S'doc'
p1
NsS'is_builtin'
p2
I01
sS'childs'
p3
(lp4
(dp5
g2
I01
sS'type'
p6
I5
sS'name'
p7
S'__doc__'
p8
sa(dp9
g2
I01
sg6
I5
sg7
S'__name__'
p10
sa(dp11
g2
I01
sg6
I5
sg7
S'__package__'
p12
sa(dp13
g1
Nsg2
I01
sg6
I2
sg7
S'add'
p14
sa(dp15
g1
Nsg2
I01
sg6
I2
sg7
S'adpcm2lin'
p16
sa(dp17
g1
Nsg2
I01
sg6
I2
sg7
S'alaw2lin'
p18
sa(dp19
g1
Nsg2
I01
sg6
I2
sg7
S'avg'
p20
sa(dp21
g1
Nsg2
I01
sg6
I2
sg7
S'avgpp'
p22
sa(dp23
g1
Nsg2
I01
sg6
I2
sg7
S'bias'
p24
sa(dp25
g1
Nsg2
I01
sg6
I2
sg7
S'cross'
p26
sa(dp27
g1
Nsg2
I01
sg3
(lp28
(dp29
g2
I01
sg6
I5
sg7
S'__delattr__'
p30
sa(dp31
g2
I01
sg6
I5
sg7
S'__dict__'
p32
sa(dp33
g2
I01
sg6
I5
sg7
g8
sa(dp34
g1
S'default object formatter'
p35
sg2
I01
sg6
I2
sg7
S'__format__'
p36
sa(dp37
g2
I01
sg6
I5
sg7
S'__getattribute__'
p38
sa(dp39
g2
I01
sg6
I5
sg7
S'__getitem__'
p40
sa(dp41
g2
I01
sg6
I5
sg7
S'__getslice__'
p42
sa(dp43
g2
I01
sg6
I5
sg7
S'__hash__'
p44
sa(dp45
g2
I01
sg6
I5
sg7
S'__init__'
p46
sa(dp47
g2
I01
sg6
I5
sg7
S'__module__'
p48
sa(dp49
g1
S'T.__new__(S, ...) -> a new object with type S, a subtype of T'
p50
sg2
I01
sg6
I2
sg7
S'__new__'
p51
sa(dp52
g1
Nsg2
I01
sg6
I2
sg7
S'__reduce__'
p53
sa(dp54
g1
S'helper for pickle'
p55
sg2
I01
sg6
I2
sg7
S'__reduce_ex__'
p56
sa(dp57
g2
I01
sg6
I5
sg7
S'__repr__'
p58
sa(dp59
g2
I01
sg6
I5
sg7
S'__setattr__'
p60
sa(dp61
g1
Nsg2
I01
sg6
I2
sg7
S'__setstate__'
p62
sa(dp63
g1
S'__sizeof__() -> int\nsize of object in memory, in bytes'
p64
sg2
I01
sg6
I2
sg7
S'__sizeof__'
p65
sa(dp66
g2
I01
sg6
I5
sg7
S'__str__'
p67
sa(dp68
g1
S'Abstract classes can override this to customize issubclass().\n\nThis is invoked early on by abc.ABCMeta.__subclasscheck__().\nIt should return True, False or NotImplemented.  If it returns\nNotImplemented, the normal algorithm is used.  Otherwise, it\noverrides the normal algorithm (and the outcome is cached).\n'
p69
sg2
I01
sg6
I2
sg7
S'__subclasshook__'
p70
sa(dp71
g1
Nsg2
I01
sg6
I2
sg7
S'__unicode__'
p72
sa(dp73
g2
I01
sg6
I5
sg7
S'__weakref__'
p74
sa(dp75
g2
I01
sg6
I5
sg7
S'args'
p76
sa(dp77
g2
I01
sg6
I5
sg7
S'message'
p78
sasg6
I3
sg7
S'error'
p79
sa(dp80
g1
Nsg2
I01
sg6
I2
sg7
S'findfactor'
p81
sa(dp82
g1
Nsg2
I01
sg6
I2
sg7
S'findfit'
p83
sa(dp84
g1
Nsg2
I01
sg6
I2
sg7
S'findmax'
p85
sa(dp86
g1
Nsg2
I01
sg6
I2
sg7
S'getsample'
p87
sa(dp88
g1
Nsg2
I01
sg6
I2
sg7
S'lin2adpcm'
p89
sa(dp90
g1
Nsg2
I01
sg6
I2
sg7
S'lin2alaw'
p91
sa(dp92
g1
Nsg2
I01
sg6
I2
sg7
S'lin2lin'
p93
sa(dp94
g1
Nsg2
I01
sg6
I2
sg7
S'lin2ulaw'
p95
sa(dp96
g1
Nsg2
I01
sg6
I2
sg7
S'max'
p97
sa(dp98
g1
Nsg2
I01
sg6
I2
sg7
S'maxpp'
p99
sa(dp100
g1
Nsg2
I01
sg6
I2
sg7
S'minmax'
p101
sa(dp102
g1
Nsg2
I01
sg6
I2
sg7
S'mul'
p103
sa(dp104
g1
Nsg2
I01
sg6
I2
sg7
S'ratecv'
p105
sa(dp106
g1
Nsg2
I01
sg6
I2
sg7
S'reverse'
p107
sa(dp108
g1
Nsg2
I01
sg6
I2
sg7
S'rms'
p109
sa(dp110
g1
Nsg2
I01
sg6
I2
sg7
S'tomono'
p111
sa(dp112
g1
Nsg2
I01
sg6
I2
sg7
S'tostereo'
p113
sa(dp114
g1
Nsg2
I01
sg6
I2
sg7
S'ulaw2lin'
p115
sasg6
I1
sg7
S'audioop'
p116
s.