(dp0
S'doc'
p1
NsS'is_builtin'
p2
I01
sS'childs'
p3
(lp4
(dp5
g2
I01
sS'type'
p6
I5
sS'name'
p7
S'__doc__'
p8
sa(dp9
g2
I01
sg6
I5
sg7
S'__name__'
p10
sa(dp11
g2
I01
sg6
I5
sg7
S'__package__'
p12
sa(dp13
g1
Nsg2
I01
sg6
I2
sg7
S'crop'
p14
sa(dp15
g1
Nsg2
I01
sg6
I2
sg7
S'dither2grey2'
p16
sa(dp17
g1
Nsg2
I01
sg6
I2
sg7
S'dither2mono'
p18
sa(dp19
g1
Nsg2
I01
sg3
(lp20
(dp21
g2
I01
sg6
I5
sg7
S'__delattr__'
p22
sa(dp23
g2
I01
sg6
I5
sg7
S'__dict__'
p24
sa(dp25
g2
I01
sg6
I5
sg7
g8
sa(dp26
g1
S'default object formatter'
p27
sg2
I01
sg6
I2
sg7
S'__format__'
p28
sa(dp29
g2
I01
sg6
I5
sg7
S'__getattribute__'
p30
sa(dp31
g2
I01
sg6
I5
sg7
S'__getitem__'
p32
sa(dp33
g2
I01
sg6
I5
sg7
S'__getslice__'
p34
sa(dp35
g2
I01
sg6
I5
sg7
S'__hash__'
p36
sa(dp37
g2
I01
sg6
I5
sg7
S'__init__'
p38
sa(dp39
g2
I01
sg6
I5
sg7
S'__module__'
p40
sa(dp41
g1
S'T.__new__(S, ...) -> a new object with type S, a subtype of T'
p42
sg2
I01
sg6
I2
sg7
S'__new__'
p43
sa(dp44
g1
Nsg2
I01
sg6
I2
sg7
S'__reduce__'
p45
sa(dp46
g1
S'helper for pickle'
p47
sg2
I01
sg6
I2
sg7
S'__reduce_ex__'
p48
sa(dp49
g2
I01
sg6
I5
sg7
S'__repr__'
p50
sa(dp51
g2
I01
sg6
I5
sg7
S'__setattr__'
p52
sa(dp53
g1
Nsg2
I01
sg6
I2
sg7
S'__setstate__'
p54
sa(dp55
g1
S'__sizeof__() -> int\nsize of object in memory, in bytes'
p56
sg2
I01
sg6
I2
sg7
S'__sizeof__'
p57
sa(dp58
g2
I01
sg6
I5
sg7
S'__str__'
p59
sa(dp60
g1
S'Abstract classes can override this to customize issubclass().\n\nThis is invoked early on by abc.ABCMeta.__subclasscheck__().\nIt should return True, False or NotImplemented.  If it returns\nNotImplemented, the normal algorithm is used.  Otherwise, it\noverrides the normal algorithm (and the outcome is cached).\n'
p61
sg2
I01
sg6
I2
sg7
S'__subclasshook__'
p62
sa(dp63
g1
Nsg2
I01
sg6
I2
sg7
S'__unicode__'
p64
sa(dp65
g2
I01
sg6
I5
sg7
S'__weakref__'
p66
sa(dp67
g2
I01
sg6
I5
sg7
S'args'
p68
sa(dp69
g2
I01
sg6
I5
sg7
S'message'
p70
sasg6
I3
sg7
S'error'
p71
sa(dp72
g1
Nsg2
I01
sg6
I2
sg7
S'grey22grey'
p73
sa(dp74
g1
Nsg2
I01
sg6
I2
sg7
S'grey2grey2'
p75
sa(dp76
g1
Nsg2
I01
sg6
I2
sg7
S'grey2grey4'
p77
sa(dp78
g1
Nsg2
I01
sg6
I2
sg7
S'grey2mono'
p79
sa(dp80
g1
Nsg2
I01
sg6
I2
sg7
S'grey2rgb'
p81
sa(dp82
g1
Nsg2
I01
sg6
I2
sg7
S'grey42grey'
p83
sa(dp84
g1
Nsg2
I01
sg6
I2
sg7
S'mono2grey'
p85
sa(dp86
g1
Nsg2
I01
sg6
I2
sg7
S'rgb2grey'
p87
sa(dp88
g1
Nsg2
I01
sg6
I2
sg7
S'rgb2rgb8'
p89
sa(dp90
g1
Nsg2
I01
sg6
I2
sg7
S'rgb82rgb'
p91
sa(dp92
g1
Nsg2
I01
sg6
I2
sg7
S'scale'
p93
sa(dp94
g1
Nsg2
I01
sg6
I2
sg7
S'tovideo'
p95
sasg6
I1
sg7
S'imageop'
p96
s.