(dp0
S'doc'
p1
S"This is an interface to Python's internal parser."
p2
sS'is_builtin'
p3
I01
sS'childs'
p4
(lp5
(dp6
g1
S'Intermediate representation of a Python parse tree.'
p7
sg3
I01
sg4
(lp8
(dp9
g3
I01
sS'type'
p10
I5
sS'name'
p11
S'__cmp__'
p12
sa(dp13
g3
I01
sg10
I5
sg11
S'__delattr__'
p14
sa(dp15
g3
I01
sg10
I5
sg11
S'__doc__'
p16
sa(dp17
g1
S'default object formatter'
p18
sg3
I01
sg10
I2
sg11
S'__format__'
p19
sa(dp20
g3
I01
sg10
I5
sg11
S'__getattribute__'
p21
sa(dp22
g3
I01
sg10
I5
sg11
S'__hash__'
p23
sa(dp24
g3
I01
sg10
I5
sg11
S'__init__'
p25
sa(dp26
g1
S'T.__new__(S, ...) -> a new object with type S, a subtype of T'
p27
sg3
I01
sg10
I2
sg11
S'__new__'
p28
sa(dp29
g1
S'helper for pickle'
p30
sg3
I01
sg10
I2
sg11
S'__reduce__'
p31
sa(dp32
g1
S'helper for pickle'
p33
sg3
I01
sg10
I2
sg11
S'__reduce_ex__'
p34
sa(dp35
g3
I01
sg10
I5
sg11
S'__repr__'
p36
sa(dp37
g3
I01
sg10
I5
sg11
S'__setattr__'
p38
sa(dp39
g1
S'Returns size in memory, in bytes.'
p40
sg3
I01
sg10
I2
sg11
S'__sizeof__'
p41
sa(dp42
g3
I01
sg10
I5
sg11
S'__str__'
p43
sa(dp44
g1
S'Abstract classes can override this to customize issubclass().\n\nThis is invoked early on by abc.ABCMeta.__subclasscheck__().\nIt should return True, False or NotImplemented.  If it returns\nNotImplemented, the normal algorithm is used.  Otherwise, it\noverrides the normal algorithm (and the outcome is cached).\n'
p45
sg3
I01
sg10
I2
sg11
S'__subclasshook__'
p46
sa(dp47
g1
S'Compile this ST object into a code object.'
p48
sg3
I01
sg10
I2
sg11
S'compile'
p49
sa(dp50
g1
S'Determines if this ST object was created from an expression.'
p51
sg3
I01
sg10
I2
sg11
S'isexpr'
p52
sa(dp53
g1
S'Determines if this ST object was created from a suite.'
p54
sg3
I01
sg10
I2
sg11
S'issuite'
p55
sa(dp56
g1
S'Creates a list-tree representation of this ST.'
p57
sg3
I01
sg10
I2
sg11
S'tolist'
p58
sa(dp59
g1
S'Creates a tuple-tree representation of this ST.'
p60
sg3
I01
sg10
I2
sg11
S'totuple'
p61
sasg10
I3
sg11
S'ASTType'
p62
sa(dp63
g1
Nsg3
I01
sg4
(lp64
(dp65
g3
I01
sg10
I5
sg11
g14
sa(dp66
g3
I01
sg10
I5
sg11
S'__dict__'
p67
sa(dp68
g3
I01
sg10
I5
sg11
g16
sa(dp69
g1
S'default object formatter'
p70
sg3
I01
sg10
I2
sg11
g19
sa(dp71
g3
I01
sg10
I5
sg11
g21
sa(dp72
g3
I01
sg10
I5
sg11
S'__getitem__'
p73
sa(dp74
g3
I01
sg10
I5
sg11
S'__getslice__'
p75
sa(dp76
g3
I01
sg10
I5
sg11
g23
sa(dp77
g3
I01
sg10
I5
sg11
g25
sa(dp78
g3
I01
sg10
I5
sg11
S'__module__'
p79
sa(dp80
g1
S'T.__new__(S, ...) -> a new object with type S, a subtype of T'
p81
sg3
I01
sg10
I2
sg11
g28
sa(dp82
g1
Nsg3
I01
sg10
I2
sg11
g31
sa(dp83
g1
S'helper for pickle'
p84
sg3
I01
sg10
I2
sg11
g34
sa(dp85
g3
I01
sg10
I5
sg11
g36
sa(dp86
g3
I01
sg10
I5
sg11
g38
sa(dp87
g1
Nsg3
I01
sg10
I2
sg11
S'__setstate__'
p88
sa(dp89
g1
S'__sizeof__() -> int\nsize of object in memory, in bytes'
p90
sg3
I01
sg10
I2
sg11
g41
sa(dp91
g3
I01
sg10
I5
sg11
g43
sa(dp92
g1
S'Abstract classes can override this to customize issubclass().\n\nThis is invoked early on by abc.ABCMeta.__subclasscheck__().\nIt should return True, False or NotImplemented.  If it returns\nNotImplemented, the normal algorithm is used.  Otherwise, it\noverrides the normal algorithm (and the outcome is cached).\n'
p93
sg3
I01
sg10
I2
sg11
g46
sa(dp94
g1
Nsg3
I01
sg10
I2
sg11
S'__unicode__'
p95
sa(dp96
g3
I01
sg10
I5
sg11
S'__weakref__'
p97
sa(dp98
g3
I01
sg10
I5
sg11
S'args'
p99
sa(dp100
g3
I01
sg10
I5
sg11
S'message'
p101
sasg10
I3
sg11
S'ParserError'
p102
sa(dp103
g1
S'Intermediate representation of a Python parse tree.'
p104
sg3
I01
sg4
(lp105
(dp106
g3
I01
sg10
I5
sg11
g12
sa(dp107
g3
I01
sg10
I5
sg11
g14
sa(dp108
g3
I01
sg10
I5
sg11
g16
sa(dp109
g1
S'default object formatter'
p110
sg3
I01
sg10
I2
sg11
g19
sa(dp111
g3
I01
sg10
I5
sg11
g21
sa(dp112
g3
I01
sg10
I5
sg11
g23
sa(dp113
g3
I01
sg10
I5
sg11
g25
sa(dp114
g1
S'T.__new__(S, ...) -> a new object with type S, a subtype of T'
p115
sg3
I01
sg10
I2
sg11
g28
sa(dp116
g1
S'helper for pickle'
p117
sg3
I01
sg10
I2
sg11
g31
sa(dp118
g1
S'helper for pickle'
p119
sg3
I01
sg10
I2
sg11
g34
sa(dp120
g3
I01
sg10
I5
sg11
g36
sa(dp121
g3
I01
sg10
I5
sg11
g38
sa(dp122
g1
S'Returns size in memory, in bytes.'
p123
sg3
I01
sg10
I2
sg11
g41
sa(dp124
g3
I01
sg10
I5
sg11
g43
sa(dp125
g1
S'Abstract classes can override this to customize issubclass().\n\nThis is invoked early on by abc.ABCMeta.__subclasscheck__().\nIt should return True, False or NotImplemented.  If it returns\nNotImplemented, the normal algorithm is used.  Otherwise, it\noverrides the normal algorithm (and the outcome is cached).\n'
p126
sg3
I01
sg10
I2
sg11
g46
sa(dp127
g1
S'Compile this ST object into a code object.'
p128
sg3
I01
sg10
I2
sg11
g49
sa(dp129
g1
S'Determines if this ST object was created from an expression.'
p130
sg3
I01
sg10
I2
sg11
g52
sa(dp131
g1
S'Determines if this ST object was created from a suite.'
p132
sg3
I01
sg10
I2
sg11
g55
sa(dp133
g1
S'Creates a list-tree representation of this ST.'
p134
sg3
I01
sg10
I2
sg11
g58
sa(dp135
g1
S'Creates a tuple-tree representation of this ST.'
p136
sg3
I01
sg10
I2
sg11
g61
sasg10
I3
sg11
S'STType'
p137
sa(dp138
g3
I01
sg10
I5
sg11
S'__copyright__'
p139
sa(dp140
g3
I01
sg10
I5
sg11
g16
sa(dp141
g3
I01
sg10
I5
sg11
S'__name__'
p142
sa(dp143
g3
I01
sg10
I5
sg11
S'__package__'
p144
sa(dp145
g3
I01
sg10
I5
sg11
S'__version__'
p146
sa(dp147
g1
S'Returns the pickle magic to allow ST objects to be pickled.'
p148
sg3
I01
sg10
I2
sg11
S'_pickler'
p149
sa(dp150
g1
S'Creates a list-tree representation of an ST.'
p151
sg3
I01
sg10
I2
sg11
S'ast2list'
p152
sa(dp153
g1
S'Creates a tuple-tree representation of an ST.'
p154
sg3
I01
sg10
I2
sg11
S'ast2tuple'
p155
sa(dp156
g1
S'Compiles an ST object into a code object.'
p157
sg3
I01
sg10
I2
sg11
S'compileast'
p158
sa(dp159
g1
S'Compiles an ST object into a code object.'
p160
sg3
I01
sg10
I2
sg11
S'compilest'
p161
sa(dp162
g1
S'Creates an ST object from an expression.'
p163
sg3
I01
sg10
I2
sg11
S'expr'
p164
sa(dp165
g1
S'Determines if an ST object was created from an expression.'
p166
sg3
I01
sg10
I2
sg11
g52
sa(dp167
g1
S'Determines if an ST object was created from a suite.'
p168
sg3
I01
sg10
I2
sg11
g55
sa(dp169
g1
S'Creates an ST object from a tree representation.'
p170
sg3
I01
sg10
I2
sg11
S'sequence2ast'
p171
sa(dp172
g1
S'Creates an ST object from a tree representation.'
p173
sg3
I01
sg10
I2
sg11
S'sequence2st'
p174
sa(dp175
g1
S'Creates a list-tree representation of an ST.'
p176
sg3
I01
sg10
I2
sg11
S'st2list'
p177
sa(dp178
g1
S'Creates a tuple-tree representation of an ST.'
p179
sg3
I01
sg10
I2
sg11
S'st2tuple'
p180
sa(dp181
g1
S'Creates an ST object from a suite.'
p182
sg3
I01
sg10
I2
sg11
S'suite'
p183
sa(dp184
g1
S'Creates an ST object from a tree representation.'
p185
sg3
I01
sg10
I2
sg11
S'tuple2ast'
p186
sa(dp187
g1
S'Creates an ST object from a tree representation.'
p188
sg3
I01
sg10
I2
sg11
S'tuple2st'
p189
sasg10
I1
sg11
S'parser'
p190
s.