(dp0
Vname
p1
V__init__
p2
sVpath
p3
VD:\u005cenv\u005cproject\u005cNoval\u005cplugins\u005cAutoCompletion\u005cautocompletion\u005c__init__.py
p4
sVchilds
p5
(lp6
(dp7
g1
Vnoval.iface
p8
sVline
p9
L-1L
sVcol
p10
L-1L
sVtype
p11
L6L
sVas_name
p12
Viface
p13
sa(dp14
g1
Vnoval.plugin
p15
sg9
L-1L
sg10
L-1L
sg11
L6L
sg12
Vplugin
p16
sa(dp17
g1
Vnoval.util.utils
p18
sg9
L-1L
sg10
L-1L
sg11
L6L
sg12
Vutils
p19
sa(dp20
g1
Vnoval.constants
p21
sg9
L-1L
sg10
L-1L
sg11
L6L
sg12
Vconstants
p22
sa(dp23
g1
VAutoCompletionPlugin
p24
sg9
L8L
sg10
L0L
sg11
L3L
sVbases
p25
(lp26
Vplugin.Plugin
p27
asVdoc
p28
Vplugin description here...
p29
sg5
(lp30
(dp31
g1
VPlugIt
p32
sg9
L11L
sg10
L4L
sg11
L2L
sg28
VHook the calculator into the menu and bind the event
p33
sVis_method
p34
I01
sVis_class_method
p35
I00
sVargs
p36
(lp37
(dp38
g1
Vself
p39
sg9
L11L
sg10
L15L
sg11
L9L
sVis_default
p40
I00
sa(dp41
g1
Vparent
p42
sg9
L11L
sg10
L21L
sg11
L9L
sg40
I00
sasVis_class_property
p43
I00
sa(dp44
g1
VGetMinVersion
p45
sg9
L19L
sg10
L4L
sg11
L2L
sg28
VOverride in subclasses to return the minimum version of novalide that\u000a        the plugin is compatible with. By default it will return the current\u000a        version of novalide.\u000a        @return: version str\u000a        
p46
sg34
I01
sg35
I00
sg36
(lp47
(dp48
g1
g39
sg9
L19L
sg10
L22L
sg11
L9L
sg40
I00
sasg43
I00
sa(dp49
g1
VInstallHook
p50
sg9
L27L
sg10
L4L
sg11
L2L
sg28
VOverride in subclasses to allow the plugin to be loaded\u000a        dynamically.\u000a        @return: None\u000a\u000a        
p51
sg34
I01
sg35
I00
sg36
(lp52
(dp53
g1
g39
sg9
L27L
sg10
L20L
sg11
L9L
sg40
I00
sasg43
I00
sa(dp54
g1
VUninstallHook
p55
sg9
L35L
sg10
L4L
sg11
L2L
sg28
Nsg34
I01
sg35
I00
sg36
(lp56
(dp57
g1
g39
sg9
L35L
sg10
L22L
sg11
L9L
sg40
I00
sasg43
I00
sa(dp58
g1
VEnableHook
p59
sg9
L38L
sg10
L4L
sg11
L2L
sg28
Nsg34
I01
sg35
I00
sg36
(lp60
(dp61
g1
g39
sg9
L38L
sg10
L19L
sg11
L9L
sg40
I00
sasg43
I00
sa(dp62
g1
VDisableHook
p63
sg9
L41L
sg10
L4L
sg11
L2L
sg28
Nsg34
I01
sg35
I00
sg36
(lp64
(dp65
g1
g39
sg9
L41L
sg10
L20L
sg11
L9L
sg40
I00
sasg43
I00
sa(dp66
g1
VGetFree
p67
sg9
L44L
sg10
L4L
sg11
L2L
sg28
Nsg34
I01
sg35
I00
sg36
(lp68
(dp69
g1
g39
sg9
L44L
sg10
L16L
sg11
L9L
sg40
I00
sasg43
I00
sa(dp70
g1
VGetPrice
p71
sg9
L47L
sg10
L4L
sg11
L2L
sg28
Nsg34
I01
sg35
I00
sg36
(lp72
(dp73
g1
g39
sg9
L47L
sg10
L17L
sg11
L9L
sg40
I00
sasg43
I00
sa(dp74
g1
VAutoInput
p75
sg9
L50L
sg10
L4L
sg11
L2L
sg28
Nsg34
I01
sg35
I00
sg36
(lp76
(dp77
g1
g39
sg9
L50L
sg10
L18L
sg11
L9L
sg40
I00
sa(dp78
g1
Vevent
p79
sg9
L50L
sg10
L23L
sg11
L9L
sg40
I00
sasg43
I00
sa(dp80
g1
VAutoBackSpace
p81
sg9
L60L
sg10
L4L
sg11
L2L
sg28
Nsg34
I01
sg35
I00
sg36
(lp82
(dp83
g1
g39
sg9
L60L
sg10
L22L
sg11
L9L
sg40
I00
sa(dp84
g1
g79
sg9
L60L
sg10
L27L
sg11
L9L
sg40
I00
sasg43
I00
sasasg28
NsVrefs
p85
(lp86
sg11
L1L
s.